Microchip Technology Inc, vv3_31 (A) K

Tool Name:
  c:\program files (x86)\microchip\mplab c30\bin\bin\..\bin/pic30-coff-ld.exe

Command:
  -p33FJ256GP710A \
  -oMatrixPilot-udb5.cof \
  -Lc:/program files (x86)/microchip/mplab c30/bin/bin/.. \
  -Lc:/program files (x86)/microchip/mplab c30/bin/bin/../../lib \
  -Lc:/program files (x86)/microchip/mplab c30/bin/bin/../../lib/PIC24E \
  -Lc:/program files (x86)/microchip/mplab c30/bin/bin/../../support/PIC24E/gld \
  -Lc:/program files (x86)/microchip/mplab c30/bin/bin/../../lib/PIC24F \
  -Lc:/program files (x86)/microchip/mplab c30/bin/bin/../../support/PIC24F/gld \
  -Lc:/program files (x86)/microchip/mplab c30/bin/bin/../../lib/PIC24H \
  -Lc:/program files (x86)/microchip/mplab c30/bin/bin/../../support/PIC24H/gld \
  -Lc:/program files (x86)/microchip/mplab c30/bin/bin/../../lib/dsPIC30F \
  -Lc:/program files (x86)/microchip/mplab c30/bin/bin/../../support/dsPIC30F/gld \
  -Lc:/program files (x86)/microchip/mplab c30/bin/bin/../../lib/dsPIC33E \
  -Lc:/program files (x86)/microchip/mplab c30/bin/bin/../../support/dsPIC33E/gld \
  -Lc:/program files (x86)/microchip/mplab c30/bin/bin/../../lib/dsPIC33F \
  -Lc:/program files (x86)/microchip/mplab c30/bin/bin/../../support/dsPIC33F/gld \
  build\UDB5\airspeedCntrl.o \
  build\UDB5\altitudeCntrl.o \
  build\UDB5\altitudeCntrlVariable.o \
  build\UDB5\behavior.o \
  build\UDB5\cameraCntrl.o \
  build\UDB5\config.o \
  build\UDB5\config_tests.o \
  build\UDB5\console.o \
  build\UDB5\data_services.o \
  build\UDB5\data_storage.o \
  build\UDB5\euler_angles.o \
  build\UDB5\flightplan-logo.o \
  build\UDB5\flightplan-waypoints.o \
  build\UDB5\flightplan.o \
  build\UDB5\flight_state.o \
  build\UDB5\fly_by_datalink.o \
  build\UDB5\helicalTurnCntrl.o \
  build\UDB5\main.o \
  build\UDB5\MAVFlexiFunctions.o \
  build\UDB5\MAVLink.o \
  build\UDB5\MAVMission.o \
  build\UDB5\MAVParams.o \
  build\UDB5\MAVUDBExtra.o \
  build\UDB5\minim_osd.o \
  build\UDB5\minIni.o \
  build\UDB5\mode_switch.o \
  build\UDB5\mp_osd.o \
  build\UDB5\navigate.o \
  build\UDB5\nv_memory_table.o \
  build\UDB5\parameter_table.o \
  build\UDB5\parameter_table2.o \
  build\UDB5\parameter_table_init.o \
  build\UDB5\pitchCntrl.o \
  build\UDB5\preflight.o \
  build\UDB5\redef.o \
  build\UDB5\remzibi_osd.o \
  build\UDB5\ring_buffer.o \
  build\UDB5\rollCntrl.o \
  build\UDB5\servoMix.o \
  build\UDB5\servoPrepare.o \
  build\UDB5\sonarCntrl.o \
  build\UDB5\states.o \
  build\UDB5\telemetry.o \
  build\UDB5\telemetry_log.o \
  build\UDB5\yawCntrl.o \
  build\UDB5\MAVFTP.o \
  build\UDB5\bittest.o \
  build\UDB5\deadReckoning.o \
  build\UDB5\estAirspeed.o \
  build\UDB5\estAltitude.o \
  build\UDB5\estLocation.o \
  build\UDB5\estWind.o \
  build\UDB5\estYawDrift.o \
  build\UDB5\gpsData.o \
  build\UDB5\gpsParseCommon.o \
  build\UDB5\gpsParseMTEK.o \
  build\UDB5\gpsParseNMEA.o \
  build\UDB5\gpsParseSTD.o \
  build\UDB5\gpsParseUBX.o \
  build\UDB5\hilsim.o \
  build\UDB5\libDCM.o \
  build\UDB5\mathlib.o \
  build\UDB5\mathlibNAV.o \
  build\UDB5\rmat.o \
  build\UDB5\24LC256.o \
  build\UDB5\ADchannel.o \
  build\UDB5\analog2digital_auav3.o \
  build\UDB5\analog2digital_udb4.o \
  build\UDB5\analog2digital_udb5.o \
  build\UDB5\analogs.o \
  build\UDB5\background.o \
  build\UDB5\barometer.o \
  build\UDB5\eeprom_udb4.o \
  build\UDB5\events.o \
  build\UDB5\heartbeat.o \
  build\UDB5\I2C1.o \
  build\UDB5\I2C2.o \
  build\UDB5\libUDB.o \
  build\UDB5\magnetometer.o \
  build\UDB5\mcu.o \
  build\UDB5\mpu6000.o \
  build\UDB5\mpu_spi.o \
  build\UDB5\osd.o \
  build\UDB5\osd_bit.o \
  build\UDB5\osd_spi.o \
  build\UDB5\radioIn.o \
  build\UDB5\read.o \
  build\UDB5\serialIO.o \
  build\UDB5\servoOut.o \
  build\UDB5\sonarIn.o \
  build\UDB5\traps.o \
  build\UDB5\uart.o \
  build\UDB5\write.o \
  build\UDB5\AT45D.o \
  build\UDB5\AT45D_DMA.o \
  build\UDB5\AT45D_FS.o \
  build\UDB5\EEPROM.o \
  build\UDB5\EEPROM_FS.o \
  build\UDB5\filesys.o \
  build\UDB5\MDD_AT45D.o \
  build\UDB5\MDD_EEPROM.o \
  build\UDB5\usb.o \
  build\UDB5\usb_cdc.o \
  build\UDB5\usb_descriptors.o \
  build\UDB5\usb_msd.o \
  build\UDB5\FSIO.o \
  build\UDB5\SD-SPI.o \
  build\UDB5\usb_device.o \
  build\UDB5\usb_hal_dspic33e.o \
  build\UDB5\usb_function_cdc.o \
  build\UDB5\usb_function_msd.o \
  build\UDB5\stack.o \
  build\UDB5\fbcl.o \
  build\UDB5\traps_asm.o \
  build\UDB5\madd.o \
  build\UDB5\mmul.o \
  build\UDB5\mscl.o \
  build\UDB5\msub.o \
  build\UDB5\mtrp.o \
  build\UDB5\vadd.o \
  build\UDB5\vcon.o \
  build\UDB5\vcopy.o \
  build\UDB5\vcor.o \
  build\UDB5\vdot.o \
  build\UDB5\vmax.o \
  build\UDB5\vmin.o \
  build\UDB5\vmul.o \
  build\UDB5\vneg.o \
  build\UDB5\vpow.o \
  build\UDB5\vscl.o \
  build\UDB5\vsub.o \
  build\UDB5\vzpad.o \
  -LC:\Program Files\Microchip\MPLAB C30\lib \
  -Tp33FJ256GP710A.gld.00 \
  --defsym=__MPLAB_BUILD=1 \
  --defsym=__MPLAB_DEBUG=1 \
  -Map=MatrixPilot-udb5.map \
  --report-mem \
  -start-group \
  --library=lega-pic30-coff \
  --library=m-coff \
  --library=lega-c-coff \
  -end-group \

Archive member included because of file (symbol)

c:/program files (x86)/microchip/mplab c30/bin/bin/../../lib/dsPIC33F\libp33FJ256GP710A-coff.a(CloseSPI2.o)
                              build\UDB5\mpu_spi.o (CloseSPI2)
c:/program files (x86)/microchip/mplab c30/bin/bin/../../lib/dsPIC33F\libp33FJ256GP710A-coff.a(ConfigIntSPI2.o)
                              build\UDB5\mpu_spi.o (ConfigIntSPI2)
c:/program files (x86)/microchip/mplab c30/bin/bin/../../lib/dsPIC33F\libp33FJ256GP710A-coff.a(OpenSPI2.o)
                              build\UDB5\mpu_spi.o (OpenSPI2)
c:/program files (x86)/microchip/mplab c30/bin/bin/../../lib\liblega-pic30-coff.a(crt0_standard.o)
                              (_resetPRI)
c:/program files (x86)/microchip/mplab c30/bin/bin/../../lib\liblega-pic30-coff.a(delay32.Lo)
                              build\UDB5\mpu6000.o (__delay32)
c:/program files (x86)/microchip/mplab c30/bin/bin/../../lib\liblega-pic30-coff.a(c30_uart.Lo)
                              build\UDB5\read.o (__C30_UART)
c:/program files (x86)/microchip/mplab c30/bin/bin/../../lib\liblega-pic30-coff.a(data_init_standard.o)
                              c:/program files (x86)/microchip/mplab c30/bin/bin/../../lib\liblega-pic30-coff.a(crt0_standard.o) (_data_init_standard)
c:/program files (x86)/microchip/mplab c30/bin/bin/../../lib\libm-coff.a(fixsfsi.o)
                              build\UDB5\altitudeCntrl.o (__fixsfsi)
c:/program files (x86)/microchip/mplab c30/bin/bin/../../lib\libm-coff.a(mulsf3.o)
                              build\UDB5\altitudeCntrl.o (__mulsf3)
c:/program files (x86)/microchip/mplab c30/bin/bin/../../lib\libm-coff.a(floatsisf.o)
                              build\UDB5\altitudeCntrl.o (__floatsisf)
c:/program files (x86)/microchip/mplab c30/bin/bin/../../lib\libm-coff.a(addsf3.o)
                              build\UDB5\altitudeCntrl.o (__subsf3)
c:/program files (x86)/microchip/mplab c30/bin/bin/../../lib\libm-coff.a(divsf3.o)
                              build\UDB5\altitudeCntrl.o (__divsf3)
c:/program files (x86)/microchip/mplab c30/bin/bin/../../lib\libm-coff.a(fixunssfsi.o)
                              build\UDB5\helicalTurnCntrl.o (__fixunssfsi)
c:/program files (x86)/microchip/mplab c30/bin/bin/../../lib\libm-coff.a(divsi3.o)
                              build\UDB5\helicalTurnCntrl.o (__divsi3)
c:/program files (x86)/microchip/mplab c30/bin/bin/../../lib\libm-coff.a(fgtge.o)
                              build\UDB5\helicalTurnCntrl.o (__gtsf2)
c:/program files (x86)/microchip/mplab c30/bin/bin/../../lib\libm-coff.a(modsi3.o)
                              build\UDB5\minIni.o (__modsi3)
c:/program files (x86)/microchip/mplab c30/bin/bin/../../lib\libm-coff.a(sqrtf.o)
                              build\UDB5\estAirspeed.o (sqrtf)
c:/program files (x86)/microchip/mplab c30/bin/bin/../../lib\libm-coff.a(powf.o)
                              build\UDB5\estAltitude.o (powf)
c:/program files (x86)/microchip/mplab c30/bin/bin/../../lib\libm-coff.a(divmoddi3.o)
                              build\UDB5\serialIO.o (__divdi3)
c:/program files (x86)/microchip/mplab c30/bin/bin/../../lib\libm-coff.a(udivsi3.o)
                              build\UDB5\FSIO.o (__udivsi3)
c:/program files (x86)/microchip/mplab c30/bin/bin/../../lib\libm-coff.a(funpack.o)
                              c:/program files (x86)/microchip/mplab c30/bin/bin/../../lib\libm-coff.a(fixsfsi.o) (_funpack)
c:/program files (x86)/microchip/mplab c30/bin/bin/../../lib\libm-coff.a(funpack2.o)
                              c:/program files (x86)/microchip/mplab c30/bin/bin/../../lib\libm-coff.a(mulsf3.o) (_funpack2)
c:/program files (x86)/microchip/mplab c30/bin/bin/../../lib\libm-coff.a(futil.o)
                              c:/program files (x86)/microchip/mplab c30/bin/bin/../../lib\libm-coff.a(mulsf3.o) (_fPropagateNaN)
c:/program files (x86)/microchip/mplab c30/bin/bin/../../lib\libm-coff.a(fpack.o)
                              c:/program files (x86)/microchip/mplab c30/bin/bin/../../lib\libm-coff.a(mulsf3.o) (_fpack)
c:/program files (x86)/microchip/mplab c30/bin/bin/../../lib\libm-coff.a(fcompare.o)
                              c:/program files (x86)/microchip/mplab c30/bin/bin/../../lib\libm-coff.a(fgtge.o) (_fcompare)
c:/program files (x86)/microchip/mplab c30/bin/bin/../../lib\libm-coff.a(umodsi3.o)
                              c:/program files (x86)/microchip/mplab c30/bin/bin/../../lib\libm-coff.a(modsi3.o) (__umodsi3)
c:/program files (x86)/microchip/mplab c30/bin/bin/../../lib\libm-coff.a(errno.o)
                              c:/program files (x86)/microchip/mplab c30/bin/bin/../../lib\libm-coff.a(sqrtf.o) (errno)
c:/program files (x86)/microchip/mplab c30/bin/bin/../../lib\libm-coff.a(fchop.o)
                              c:/program files (x86)/microchip/mplab c30/bin/bin/../../lib\libm-coff.a(powf.o) (_fchop)
c:/program files (x86)/microchip/mplab c30/bin/bin/../../lib\libm-coff.a(_frexpf.o)
                              c:/program files (x86)/microchip/mplab c30/bin/bin/../../lib\libm-coff.a(powf.o) (_frexpf)
c:/program files (x86)/microchip/mplab c30/bin/bin/../../lib\libm-coff.a(feqltle.o)
                              c:/program files (x86)/microchip/mplab c30/bin/bin/../../lib\libm-coff.a(powf.o) (__eqsf2)
c:/program files (x86)/microchip/mplab c30/bin/bin/../../lib\libm-coff.a(ldexpf.o)
                              c:/program files (x86)/microchip/mplab c30/bin/bin/../../lib\libm-coff.a(powf.o) (ldexpf)
c:/program files (x86)/microchip/mplab c30/bin/bin/../../lib\libm-coff.a(logf.o)
                              c:/program files (x86)/microchip/mplab c30/bin/bin/../../lib\libm-coff.a(powf.o) (logf)
c:/program files (x86)/microchip/mplab c30/bin/bin/../../lib\libm-coff.a(expf.o)
                              c:/program files (x86)/microchip/mplab c30/bin/bin/../../lib\libm-coff.a(powf.o) (expf)
c:/program files (x86)/microchip/mplab c30/bin/bin/../../lib\liblega-c-coff.a(strchr.XXo)
                              build\UDB5\config.o (strchr)
c:/program files (x86)/microchip/mplab c30/bin/bin/../../lib\liblega-c-coff.a(puts.XXo)
                              build\UDB5\flight_state.o (puts)
c:/program files (x86)/microchip/mplab c30/bin/bin/../../lib\liblega-c-coff.a(setjmp.XXo)
                              build\UDB5\main.o (_Setjmp)
c:/program files (x86)/microchip/mplab c30/bin/bin/../../lib\liblega-c-coff.a(xassert.XXo)
                              build\UDB5\minIni.o (_Assert)
c:/program files (x86)/microchip/mplab c30/bin/bin/../../lib\liblega-c-coff.a(strlen.XXo)
                              build\UDB5\minIni.o (strlen)
c:/program files (x86)/microchip/mplab c30/bin/bin/../../lib\liblega-c-coff.a(toupper.XXo)
                              build\UDB5\minIni.o (toupper)
c:/program files (x86)/microchip/mplab c30/bin/bin/../../lib\liblega-c-coff.a(strtol.XXo)
                              build\UDB5\minIni.o (strtol)
c:/program files (x86)/microchip/mplab c30/bin/bin/../../lib\liblega-c-coff.a(xstod.XXo)
                              build\UDB5\minIni.o (_Stof)
c:/program files (x86)/microchip/mplab c30/bin/bin/../../lib\liblega-c-coff.a(strcmp.XXo)
                              build\UDB5\minIni.o (strcmp)
c:/program files (x86)/microchip/mplab c30/bin/bin/../../lib\liblega-c-coff.a(sprintf_fF.XXo)
                              build\UDB5\minIni.o (_sprintf_fF)
c:/program files (x86)/microchip/mplab c30/bin/bin/../../lib\liblega-c-coff.a(strncpy.XXo)
                              build\UDB5\telemetry_log.o (strncpy)
c:/program files (x86)/microchip/mplab c30/bin/bin/../../lib\liblega-c-coff.a(sprintf_cdnopuxX.XXo)
                              build\UDB5\telemetry_log.o (_sprintf_cdnopuxX)
c:/program files (x86)/microchip/mplab c30/bin/bin/../../lib\liblega-c-coff.a(fopen.XXo)
                              build\UDB5\telemetry_log.o (fopen)
c:/program files (x86)/microchip/mplab c30/bin/bin/../../lib\liblega-c-coff.a(fclose.XXo)
                              build\UDB5\telemetry_log.o (fclose)
c:/program files (x86)/microchip/mplab c30/bin/bin/../../lib\liblega-c-coff.a(printf_s.XXo)
                              build\UDB5\telemetry_log.o (_printf_s)
c:/program files (x86)/microchip/mplab c30/bin/bin/../../lib\liblega-c-coff.a(fwrite.XXo)
                              build\UDB5\telemetry_log.o (fwrite)
c:/program files (x86)/microchip/mplab c30/bin/bin/../../lib\liblega-c-coff.a(printf_cdnopuxX.XXo)
                              build\UDB5\mpu6000.o (_printf_cdnopuxX)
c:/program files (x86)/microchip/mplab c30/bin/bin/../../lib\liblega-c-coff.a(xstoul.XXo)
                              build\UDB5\EEPROM.o (_Stoul)
c:/program files (x86)/microchip/mplab c30/bin/bin/../../lib\liblega-c-coff.a(memset.XXo)
                              build\UDB5\EEPROM_FS.o (memset)
c:/program files (x86)/microchip/mplab c30/bin/bin/../../lib\liblega-c-coff.a(printf_cdnopsuxX.XXo)
                              build\UDB5\filesys.o (_printf_cdnopsuxX)
c:/program files (x86)/microchip/mplab c30/bin/bin/../../lib\liblega-c-coff.a(tolower.XXo)
                              build\UDB5\FSIO.o (tolower)
c:/program files (x86)/microchip/mplab c30/bin/bin/../../lib\liblega-c-coff.a(sprintf_cdfFnopuxX.XXo)
                              (_sprintf_cdfFnopuxX)
c:/program files (x86)/microchip/mplab c30/bin/bin/../../lib\liblega-c-coff.a(xfiles.XXo)
                              c:/program files (x86)/microchip/mplab c30/bin/bin/../../lib\liblega-c-coff.a(fclose.XXo) (_Files)
c:/program files (x86)/microchip/mplab c30/bin/bin/../../lib\liblega-c-coff.a(fputs.XXo)
                              c:/program files (x86)/microchip/mplab c30/bin/bin/../../lib\liblega-c-coff.a(puts.XXo) (fputs)
c:/program files (x86)/microchip/mplab c30/bin/bin/../../lib\liblega-c-coff.a(fputc.XXo)
                              c:/program files (x86)/microchip/mplab c30/bin/bin/../../lib\liblega-c-coff.a(puts.XXo) (fputc)
c:/program files (x86)/microchip/mplab c30/bin/bin/../../lib\liblega-c-coff.a(fflush.XXo)
                              c:/program files (x86)/microchip/mplab c30/bin/bin/../../lib\liblega-c-coff.a(xassert.XXo) (_DNKfflush)
c:/program files (x86)/microchip/mplab c30/bin/bin/../../lib\liblega-c-coff.a(raise.XXo)
                              c:/program files (x86)/microchip/mplab c30/bin/bin/../../lib\liblega-c-coff.a(xassert.XXo) (raise)
c:/program files (x86)/microchip/mplab c30/bin/bin/../../lib\liblega-c-coff.a(exit.XXo)
                              c:/program files (x86)/microchip/mplab c30/bin/bin/../../lib\liblega-c-coff.a(xassert.XXo) (exit)
c:/program files (x86)/microchip/mplab c30/bin/bin/../../lib\liblega-c-coff.a(isspace.XXo)
                              c:/program files (x86)/microchip/mplab c30/bin/bin/../../lib\liblega-c-coff.a(strtol.XXo) (isspace)
c:/program files (x86)/microchip/mplab c30/bin/bin/../../lib\liblega-c-coff.a(xstopfx.XXo)
                              c:/program files (x86)/microchip/mplab c30/bin/bin/../../lib\liblega-c-coff.a(xstod.XXo) (_Stopfx)
c:/program files (x86)/microchip/mplab c30/bin/bin/../../lib\liblega-c-coff.a(xstoflt.XXo)
                              c:/program files (x86)/microchip/mplab c30/bin/bin/../../lib\liblega-c-coff.a(xstod.XXo) (_Stoflt)
c:/program files (x86)/microchip/mplab c30/bin/bin/../../lib\liblega-c-coff.a(xstoxflt.XXo)
                              c:/program files (x86)/microchip/mplab c30/bin/bin/../../lib\liblega-c-coff.a(xstod.XXo) (_Stoxflt)
c:/program files (x86)/microchip/mplab c30/bin/bin/../../lib\liblega-c-coff.a(xfdscale.XXo)
                              c:/program files (x86)/microchip/mplab c30/bin/bin/../../lib\liblega-c-coff.a(xstod.XXo) (_FDscale)
c:/program files (x86)/microchip/mplab c30/bin/bin/../../lib\liblega-c-coff.a(xdtento.XXo)
                              c:/program files (x86)/microchip/mplab c30/bin/bin/../../lib\liblega-c-coff.a(xstod.XXo) (_FDtento)
c:/program files (x86)/microchip/mplab c30/bin/bin/../../lib\liblega-c-coff.a(memcpy.XXo)
                              c:/program files (x86)/microchip/mplab c30/bin/bin/../../lib\liblega-c-coff.a(sprintf_fF.XXo) (memcpy)
c:/program files (x86)/microchip/mplab c30/bin/bin/../../lib\liblega-c-coff.a(xprintf_fF.XXo)
                              c:/program files (x86)/microchip/mplab c30/bin/bin/../../lib\liblega-c-coff.a(sprintf_fF.XXo) (__Printf_fF)
c:/program files (x86)/microchip/mplab c30/bin/bin/../../lib\liblega-c-coff.a(xprintf_cdnopuxX.XXo)
                              c:/program files (x86)/microchip/mplab c30/bin/bin/../../lib\liblega-c-coff.a(sprintf_cdnopuxX.XXo) (__Printf_cdnopuxX)
c:/program files (x86)/microchip/mplab c30/bin/bin/../../lib\liblega-c-coff.a(xfofind.XXo)
                              c:/program files (x86)/microchip/mplab c30/bin/bin/../../lib\liblega-c-coff.a(fopen.XXo) (_Fofind)
c:/program files (x86)/microchip/mplab c30/bin/bin/../../lib\liblega-c-coff.a(xfoprep.XXo)
                              c:/program files (x86)/microchip/mplab c30/bin/bin/../../lib\liblega-c-coff.a(fopen.XXo) (_Foprep)
c:/program files (x86)/microchip/mplab c30/bin/bin/../../lib\liblega-c-coff.a(xatexit.XXo)
                              c:/program files (x86)/microchip/mplab c30/bin/bin/../../lib\liblega-c-coff.a(fclose.XXo) (_Atexit)
c:/program files (x86)/microchip/mplab c30/bin/bin/../../lib\liblega-c-coff.a(free.XXo)
                              c:/program files (x86)/microchip/mplab c30/bin/bin/../../lib\liblega-c-coff.a(fclose.XXo) (free)
c:/program files (x86)/microchip/mplab c30/bin/bin/../../lib\liblega-c-coff.a(xprintf_s.XXo)
                              c:/program files (x86)/microchip/mplab c30/bin/bin/../../lib\liblega-c-coff.a(printf_s.XXo) (__Printf_s)
c:/program files (x86)/microchip/mplab c30/bin/bin/../../lib\liblega-c-coff.a(xfwprep.XXo)
                              c:/program files (x86)/microchip/mplab c30/bin/bin/../../lib\liblega-c-coff.a(fwrite.XXo) (_Fwprep)
c:/program files (x86)/microchip/mplab c30/bin/bin/../../lib\liblega-c-coff.a(memchr.XXo)
                              c:/program files (x86)/microchip/mplab c30/bin/bin/../../lib\liblega-c-coff.a(fwrite.XXo) (memchr)
c:/program files (x86)/microchip/mplab c30/bin/bin/../../lib\liblega-c-coff.a(xprintf_cdnopsuxX.XXo)
                              c:/program files (x86)/microchip/mplab c30/bin/bin/../../lib\liblega-c-coff.a(printf_cdnopsuxX.XXo) (__Printf_cdnopsuxX)
c:/program files (x86)/microchip/mplab c30/bin/bin/../../lib\liblega-c-coff.a(xprintf_cdfFnopuxX.XXo)
                              c:/program files (x86)/microchip/mplab c30/bin/bin/../../lib\liblega-c-coff.a(sprintf_cdfFnopuxX.XXo) (__Printf_cdfFnopuxX)
c:/program files (x86)/microchip/mplab c30/bin/bin/../../lib\liblega-c-coff.a(strrchr.XXo)
                              c:/program files (x86)/microchip/mplab c30/bin/bin/../../lib\liblega-c-coff.a(fputs.XXo) (strrchr)
c:/program files (x86)/microchip/mplab c30/bin/bin/../../lib\liblega-c-coff.a(signal.XXo)
                              c:/program files (x86)/microchip/mplab c30/bin/bin/../../lib\liblega-c-coff.a(raise.XXo) (signal)
c:/program files (x86)/microchip/mplab c30/bin/bin/../../lib\liblega-c-coff.a(isalnum.XXo)
                              c:/program files (x86)/microchip/mplab c30/bin/bin/../../lib\liblega-c-coff.a(xstopfx.XXo) (isalnum)
c:/program files (x86)/microchip/mplab c30/bin/bin/../../lib\liblega-c-coff.a(xfdnorm.XXo)
                              c:/program files (x86)/microchip/mplab c30/bin/bin/../../lib\liblega-c-coff.a(xfdscale.XXo) (_FDnorm)
c:/program files (x86)/microchip/mplab c30/bin/bin/../../lib\liblega-c-coff.a(xfdunsca.XXo)
                              c:/program files (x86)/microchip/mplab c30/bin/bin/../../lib\liblega-c-coff.a(xdtento.XXo) (_FDunscale)
c:/program files (x86)/microchip/mplab c30/bin/bin/../../lib\liblega-c-coff.a(xferaise.XXo)
                              c:/program files (x86)/microchip/mplab c30/bin/bin/../../lib\liblega-c-coff.a(xdtento.XXo) (_Feraise)
c:/program files (x86)/microchip/mplab c30/bin/bin/../../lib\liblega-c-coff.a(xvacopy.XXo)
                              c:/program files (x86)/microchip/mplab c30/bin/bin/../../lib\liblega-c-coff.a(xprintf_fF.XXo) (_Vacopy)
c:/program files (x86)/microchip/mplab c30/bin/bin/../../lib\liblega-c-coff.a(xputfld_fF.XXo)
                              c:/program files (x86)/microchip/mplab c30/bin/bin/../../lib\liblega-c-coff.a(xprintf_fF.XXo) (__Putfld_fF)
c:/program files (x86)/microchip/mplab c30/bin/bin/../../lib\liblega-c-coff.a(xputtxt.XXo)
                              c:/program files (x86)/microchip/mplab c30/bin/bin/../../lib\liblega-c-coff.a(xprintf_fF.XXo) (_Puttxt)
c:/program files (x86)/microchip/mplab c30/bin/bin/../../lib\liblega-c-coff.a(xputfld_cdnopuxX.XXo)
                              c:/program files (x86)/microchip/mplab c30/bin/bin/../../lib\liblega-c-coff.a(xprintf_cdnopuxX.XXo) (__Putfld_cdnopuxX)
c:/program files (x86)/microchip/mplab c30/bin/bin/../../lib\liblega-c-coff.a(malloc.XXo)
                              c:/program files (x86)/microchip/mplab c30/bin/bin/../../lib\liblega-c-coff.a(free.XXo) (_Aldata)
c:/program files (x86)/microchip/mplab c30/bin/bin/../../lib\liblega-c-coff.a(xfopen.XXo)
                              c:/program files (x86)/microchip/mplab c30/bin/bin/../../lib\liblega-c-coff.a(xfoprep.XXo) (_Fopen)
c:/program files (x86)/microchip/mplab c30/bin/bin/../../lib\liblega-c-coff.a(xputfld_s.XXo)
                              c:/program files (x86)/microchip/mplab c30/bin/bin/../../lib\liblega-c-coff.a(xprintf_s.XXo) (__Putfld_s)
c:/program files (x86)/microchip/mplab c30/bin/bin/../../lib\liblega-c-coff.a(xputfld_cdnopsuxX.XXo)
                              c:/program files (x86)/microchip/mplab c30/bin/bin/../../lib\liblega-c-coff.a(xprintf_cdnopsuxX.XXo) (__Putfld_cdnopsuxX)
c:/program files (x86)/microchip/mplab c30/bin/bin/../../lib\liblega-c-coff.a(xputfld_cdfFnopuxX.XXo)
                              c:/program files (x86)/microchip/mplab c30/bin/bin/../../lib\liblega-c-coff.a(xprintf_cdfFnopuxX.XXo) (__Putfld_cdfFnopuxX)
c:/program files (x86)/microchip/mplab c30/bin/bin/../../lib\liblega-c-coff.a(xldtob_fF.XXo)
                              c:/program files (x86)/microchip/mplab c30/bin/bin/../../lib\liblega-c-coff.a(xputfld_fF.XXo) (__Ldtob_fF)
c:/program files (x86)/microchip/mplab c30/bin/bin/../../lib\liblega-c-coff.a(xlitob.XXo)
                              c:/program files (x86)/microchip/mplab c30/bin/bin/../../lib\liblega-c-coff.a(xputfld_cdnopuxX.XXo) (_Litob)
c:/program files (x86)/microchip/mplab c30/bin/bin/../../lib\liblega-c-coff.a(xgetmem.XXo)
                              c:/program files (x86)/microchip/mplab c30/bin/bin/../../lib\liblega-c-coff.a(malloc.XXo) (_Getmem)
c:/program files (x86)/microchip/mplab c30/bin/bin/../../lib\liblega-c-coff.a(xldtob_cdfFnopuxX.XXo)
                              c:/program files (x86)/microchip/mplab c30/bin/bin/../../lib\liblega-c-coff.a(xputfld_cdfFnopuxX.XXo) (__Ldtob_cdfFnopuxX)
c:/program files (x86)/microchip/mplab c30/bin/bin/../../lib\liblega-c-coff.a(xldunsca.XXo)
                              c:/program files (x86)/microchip/mplab c30/bin/bin/../../lib\liblega-c-coff.a(xldtob_fF.XXo) (_LDunscale)
c:/program files (x86)/microchip/mplab c30/bin/bin/../../lib\liblega-c-coff.a(ldiv.XXo)
                              c:/program files (x86)/microchip/mplab c30/bin/bin/../../lib\liblega-c-coff.a(xldtob_fF.XXo) (ldiv)
c:/program files (x86)/microchip/mplab c30/bin/bin/../../lib\liblega-c-coff.a(xgenld_fF.XXo)
                              c:/program files (x86)/microchip/mplab c30/bin/bin/../../lib\liblega-c-coff.a(xldtob_fF.XXo) (__Genld_fF)
c:/program files (x86)/microchip/mplab c30/bin/bin/../../lib\liblega-c-coff.a(xgenld_cdfFnopuxX.XXo)
                              c:/program files (x86)/microchip/mplab c30/bin/bin/../../lib\liblega-c-coff.a(xldtob_cdfFnopuxX.XXo) (__Genld_cdfFnopuxX)
c:/program files (x86)/microchip/mplab c30/bin/bin/../../lib\liblega-c-coff.a(xdnorm.XXo)
                              c:/program files (x86)/microchip/mplab c30/bin/bin/../../lib\liblega-c-coff.a(xldunsca.XXo) (_Dnorm)
c:/program files (x86)/microchip/mplab c30/bin/bin/../../lib\liblega-c-coff.a(div.XXo)
                              c:/program files (x86)/microchip/mplab c30/bin/bin/../../lib\liblega-c-coff.a(xgenld_fF.XXo) (div)
c:/program files (x86)/microchip/mplab c30/bin/bin/../../lib\liblega-pic30-coff.a(close.Lo)
                              c:/program files (x86)/microchip/mplab c30/bin/bin/../../lib\liblega-c-coff.a(fclose.XXo) (close)
c:/program files (x86)/microchip/mplab c30/bin/bin/../../lib\liblega-pic30-coff.a(remove.Lo)
                              c:/program files (x86)/microchip/mplab c30/bin/bin/../../lib\liblega-c-coff.a(fclose.XXo) (remove)
c:/program files (x86)/microchip/mplab c30/bin/bin/../../lib\liblega-pic30-coff.a(_exit.Lo)
                              c:/program files (x86)/microchip/mplab c30/bin/bin/../../lib\liblega-c-coff.a(exit.XXo) (_exit)
c:/program files (x86)/microchip/mplab c30/bin/bin/../../lib\liblega-pic30-coff.a(open.Lo)
                              c:/program files (x86)/microchip/mplab c30/bin/bin/../../lib\liblega-c-coff.a(xfopen.XXo) (open)
c:/program files (x86)/microchip/mplab c30/bin/bin/../../lib\liblega-pic30-coff.a(sbrk.Lo)
                              c:/program files (x86)/microchip/mplab c30/bin/bin/../../lib\liblega-c-coff.a(xgetmem.XXo) (sbrk)
c:/program files (x86)/microchip/mplab c30/bin/bin/../../lib\liblega-pic30-coff.a(brk.Lo)
                              c:/program files (x86)/microchip/mplab c30/bin/bin/../../lib\liblega-pic30-coff.a(sbrk.Lo) (brk)
c:/program files (x86)/microchip/mplab c30/bin/bin/../../lib\libm-coff.a(mulsi3.o)
                              c:/program files (x86)/microchip/mplab c30/bin/bin/../../lib\liblega-c-coff.a(xstoul.XXo) (__mulsi3)
c:/program files (x86)/microchip/mplab c30/bin/bin/../../lib\libm-coff.a(extendsfdf.o)
                              c:/program files (x86)/microchip/mplab c30/bin/bin/../../lib\liblega-c-coff.a(xputfld_fF.XXo) (__extendsfdf2)
c:/program files (x86)/microchip/mplab c30/bin/bin/../../lib\libm-coff.a(deqltle.o)
                              c:/program files (x86)/microchip/mplab c30/bin/bin/../../lib\liblega-c-coff.a(xldtob_fF.XXo) (__ltdf2)
c:/program files (x86)/microchip/mplab c30/bin/bin/../../lib\libm-coff.a(muldf3.o)
                              c:/program files (x86)/microchip/mplab c30/bin/bin/../../lib\liblega-c-coff.a(xldtob_fF.XXo) (__muldf3)
c:/program files (x86)/microchip/mplab c30/bin/bin/../../lib\libm-coff.a(divdf3.o)
                              c:/program files (x86)/microchip/mplab c30/bin/bin/../../lib\liblega-c-coff.a(xldtob_fF.XXo) (__divdf3)
c:/program files (x86)/microchip/mplab c30/bin/bin/../../lib\libm-coff.a(fixdfsi.o)
                              c:/program files (x86)/microchip/mplab c30/bin/bin/../../lib\liblega-c-coff.a(xldtob_fF.XXo) (__fixdfsi)
c:/program files (x86)/microchip/mplab c30/bin/bin/../../lib\libm-coff.a(floatsidf.o)
                              c:/program files (x86)/microchip/mplab c30/bin/bin/../../lib\liblega-c-coff.a(xldtob_fF.XXo) (__floatsidf)
c:/program files (x86)/microchip/mplab c30/bin/bin/../../lib\libm-coff.a(subdf3.o)
                              c:/program files (x86)/microchip/mplab c30/bin/bin/../../lib\liblega-c-coff.a(xldtob_fF.XXo) (__subdf3)
c:/program files (x86)/microchip/mplab c30/bin/bin/../../lib\libm-coff.a(dgtge.o)
                              c:/program files (x86)/microchip/mplab c30/bin/bin/../../lib\liblega-c-coff.a(xldtob_fF.XXo) (__gtdf2)
c:/program files (x86)/microchip/mplab c30/bin/bin/../../lib\libm-coff.a(muldi3.o)
                              c:/program files (x86)/microchip/mplab c30/bin/bin/../../lib\liblega-c-coff.a(xlitob.XXo) (__muldi3)
c:/program files (x86)/microchip/mplab c30/bin/bin/../../lib\libm-coff.a(dcompare.o)
                              c:/program files (x86)/microchip/mplab c30/bin/bin/../../lib\libm-coff.a(deqltle.o) (_dcompare)
c:/program files (x86)/microchip/mplab c30/bin/bin/../../lib\libm-coff.a(dunpack2.o)
                              c:/program files (x86)/microchip/mplab c30/bin/bin/../../lib\libm-coff.a(muldf3.o) (_dunpack2)
c:/program files (x86)/microchip/mplab c30/bin/bin/../../lib\libm-coff.a(dpack.o)
                              c:/program files (x86)/microchip/mplab c30/bin/bin/../../lib\libm-coff.a(muldf3.o) (_dpack)
c:/program files (x86)/microchip/mplab c30/bin/bin/../../lib\libm-coff.a(dunpack.o)
                              c:/program files (x86)/microchip/mplab c30/bin/bin/../../lib\libm-coff.a(fixdfsi.o) (_dunpack)
c:/program files (x86)/microchip/mplab c30/bin/bin/../../lib\libm-coff.a(floatdidf.o)
                              c:/program files (x86)/microchip/mplab c30/bin/bin/../../lib\libm-coff.a(floatsidf.o) (__floatdidf)
c:/program files (x86)/microchip/mplab c30/bin/bin/../../lib\libm-coff.a(adddf3.o)
                              c:/program files (x86)/microchip/mplab c30/bin/bin/../../lib\libm-coff.a(subdf3.o) (__adddf3)
c:/program files (x86)/microchip/mplab c30/bin/bin/../../lib\libm-coff.a(umuldi3.o)
                              c:/program files (x86)/microchip/mplab c30/bin/bin/../../lib\libm-coff.a(muldi3.o) (__umuldi3)
c:/program files (x86)/microchip/mplab c30/bin/bin/../../lib\libm-coff.a(dtype.o)
                              c:/program files (x86)/microchip/mplab c30/bin/bin/../../lib\libm-coff.a(dcompare.o) (_dtype)
c:/program files (x86)/microchip/mplab c30/bin/bin/../../lib\libm-coff.a(dpropagateNaN.o)
                              c:/program files (x86)/microchip/mplab c30/bin/bin/../../lib\libm-coff.a(dunpack2.o) (_dPropagateNaN)
c:/program files (x86)/microchip/mplab c30/bin/bin/../../lib\liblega-c-coff.a(xputfld_cdfFnopsuxX.XXo)
                              (__Putfld_cdfFnopsuxX)
c:/program files (x86)/microchip/mplab c30/bin/bin/../../lib\liblega-c-coff.a(xprintf_cdfFnopsuxX.XXo)
                              (__Printf_cdfFnopsuxX)
c:/program files (x86)/microchip/mplab c30/bin/bin/../../lib\liblega-c-coff.a(xldtob_cdfFnopsuxX.XXo)
                              c:/program files (x86)/microchip/mplab c30/bin/bin/../../lib\liblega-c-coff.a(xputfld_cdfFnopsuxX.XXo) (__Ldtob_cdfFnopsuxX)
c:/program files (x86)/microchip/mplab c30/bin/bin/../../lib\liblega-c-coff.a(xgenld_cdfFnopsuxX.XXo)
                              c:/program files (x86)/microchip/mplab c30/bin/bin/../../lib\liblega-c-coff.a(xldtob_cdfFnopsuxX.XXo) (__Genld_cdfFnopsuxX)


Selected CodeGuard Options:
  FGS:GWRP:OFF
  FGS:GSS:OFF

CodeGuard FLASH Memory:
  boot    (none)
  secure  (none)
  general 0x200 to 0x2abfc

CodeGuard RAM Memory:
  general 0x800 to 0x7fff
  secure  (none)
  boot    (none)


Program Memory  [Origin = 0x200, Length = 0x2a9fe]

section                    address   length (PC units)   length (bytes) (dec)
-------                    -------   -----------------   --------------------
.text                        0x200              0x3922          0x55b3  (21939)
.const                      0x3b22               0xab6          0x1011  (4113)
.text                       0x45d8              0x8834          0xcc4e  (52302)
.dinit                      0xce0c               0x4e6           0x759  (1881)
.text                       0xd2f2              0x4dd2          0x74bb  (29883)

                     Total program memory used (bytes):        0x1ae26  (110118) 42%


Data Memory  [Origin = 0x800, Length = 0x7800]

section                    address      alignment gaps    total length  (dec)
-------                    -------      --------------    -------------------
_028038c056203912            0x800                   0             0x4  (4)
_028037e056203912            0x804                   0             0x2  (2)
_0280393056203912            0x806                   0             0x2  (2)
.nbss                        0x808                   0             0x2  (2)
.bss                         0x80a                   0           0x41a  (1050)
_0363c31056203929            0xc24                   0           0x200  (512)
_0363c46056203929            0xe24                   0           0x200  (512)
.bss                        0x1024                   0           0x22c  (556)
.data                       0x1250                   0            0x88  (136)
.bss                        0x12d8                   0            0xc8  (200)
.data                       0x13a0                   0            0xda  (218)
.bss                        0x147a                   0            0xc8  (200)
.data                       0x1542                   0            0x38  (56)
.bss                        0x157a                   0            0x34  (52)
.data                       0x15ae                   0            0x2e  (46)
.bss                        0x15dc                   0            0x58  (88)
.dconst                     0x1634                   0            0x28  (40)
.data                       0x165c                   0            0x28  (40)
.bss                        0x1684                   0            0x6c  (108)
.data                       0x16f0                   0            0x42  (66)
.bss                        0x1732                   0            0x3c  (60)
.data                       0x176e                   0            0x32  (50)
.bss                        0x17a0                   0            0x16  (22)
.data                       0x17b6                   0            0x16  (22)
.bss                        0x17cc                   0            0x16  (22)
.data                       0x17e2                   0            0x16  (22)
.bss                        0x17f8                   0            0x16  (22)
.bss                        0x180e                   0            0x24  (36)
.data                       0x1832                   0            0x24  (36)
.bss                        0x1856                   0            0x10  (16)
.dconst                     0x1866                   0            0x10  (16)
.bss                        0x1876                   0            0x6c  (108)
.data                       0x18e2                   0            0x14  (20)
.bss                        0x18f6                   0            0x14  (20)
.data                       0x190a                   0            0x10  (16)
.bss                        0x191a                   0            0x10  (16)
.data                       0x192a                   0             0x8  (8)
.dconst                     0x1932                   0             0x8  (8)
.bss                        0x193a                   0             0x6  (6)
.data                       0x1940                   0            0x12  (18)
.bss                        0x1952                   0            0x12  (18)
.data                       0x1964                   0            0x14  (20)
.bss                        0x1978                   0             0x8  (8)
.data                       0x1980                   0             0x4  (4)
.bss                        0x1984                   0             0x4  (4)
.data                       0x1988                   0            0x10  (16)
.bss                        0x1998                   0             0x4  (4)
.data                       0x199c                   0             0xc  (12)
.bss                        0x19a8                   0             0x2  (2)
.data                       0x19aa                   0             0x4  (4)
.bss                        0x19ae                   0             0x2  (2)
.data                       0x19b0                   0             0x4  (4)
.bss                        0x19b4                   0             0x2  (2)
.data                       0x19b6                   0             0x4  (4)
.bss                        0x19ba                   0             0x2  (2)
.dconst                     0x19bc                   0             0x2  (2)
_0299362056203908           0x7fc0                   0             0xc  (12)
.bss                        0x7fcc                   0            0x14  (20)
_029934d056203908           0x7fe0                   0             0xc  (12)
.bss                        0x7fec                   0            0x12  (18)
.data                       0x7ffe                   0             0x2  (2)

                        Total data memory used (bytes):         0x11fe  (4606) 14%


Dynamic Memory Usage

region                     address                      maximum length  (dec)
------                     -------                      ---------------------
heap                             0                                   0  (0)
stack                       0x19be                              0x6602  (26114)

                        Maximum dynamic memory (bytes):         0x6602  (26114)


External Symbols in Data Memory (by address):

                    0x0800                  _trap_source
                    0x0804                  _trap_flags
                    0x0806                  _osc_fail_count
                    0x0c24                  _gDataBuffer
                    0x0e24                  _gFATBuffer
                    0x1024                  _gFileArray
                    0x10c6                  _gFileSlotOpen
                    0x10ca                  _FatRootDirClusterValue
                    0x10ce                  _FSerrno
                    0x10d0                  _TempClusterCalc
                    0x10d4                  _dirCleared
                    0x10d6                  _tempCWDobj
                    0x110c                  _gFileTemp
                    0x1142                  _cwd
                    0x1178                  _gDiskData
                    0x119c                  _asciiFilename
                    0x119e                  _fileNameLength
                    0x11a0                  _gains
                    0x11e2                  _altit
                    0x1206                  _hover
                    0x122e                  _turns
                    0x124e                  _settings
                    0x1250                  __Files
                    0x1260                  __Stderr
                    0x1288                  __Stdout
                    0x12b0                  __Stdin
                    0x1310                  _logoStack
                    0x1340                  _events
                    0x13f6                  _rmat
                    0x1408                  _omegagyro
                    0x140e                  _accelEarth
                    0x1414                  _omegaAccum
                    0x1420                  _aero_force
                    0x1426                  _dirOverGndHGPS
                    0x142c                  _dirOverGndHrmat
                    0x147a                  _udb_xaccel
                    0x1484                  _udb_yaccel
                    0x148e                  _udb_zaccel
                    0x1498                  _udb_xrate
                    0x14a2                  _udb_yrate
                    0x14ac                  _udb_zrate
                    0x14b6                  _udb_vref
                    0x1504                  _udb_analogInputs
                    0x152c                  _udb_vcc
                    0x1536                  _udb_5v
                    0x1540                  _sample_count
                    0x1542                  _dead_reckon_clock
                    0x1544                  _IMUvelocityx
                    0x1548                  _IMUvelocityy
                    0x154c                  _IMUvelocityz
                    0x1550                  _forward_ground_speed
                    0x1552                  _IMUlocationx
                    0x1556                  _IMUlocationy
                    0x155a                  _IMUlocationz
                    0x155e                  _IMUintegralAccelerationx
                    0x1562                  _IMUintegralAccelerationy
                    0x1566                  _IMUintegralAccelerationz
                    0x156a                  _air_speed_3DIMU
                    0x156c                  _total_energy
                    0x156e                  _locationErrorEarth
                    0x1574                  _velocityErrorEarth
                    0x15dc                  _gps_data_age
                    0x15de                  _actual_dir
                    0x15df                  _calculated_heading
                    0x15e0                  _hilsim_airspeed
                    0x15e2                  _lat_origin
                    0x15e6                  _lon_origin
                    0x15ea                  _alt_origin
                    0x15ee                  _lat_gps
                    0x15f2                  _lon_gps
                    0x15f6                  _alt_sl_gps
                    0x15fa                  _hdop
                    0x15fb                  _svs
                    0x15fc                  _week_no
                    0x15fe                  _sog_gps
                    0x1600                  _cog_gps
                    0x1602                  _climb_gps
                    0x1604                  _tow
                    0x161c                  _udb_pwIn
                    0x1628                  _udb_pwTrim
                    0x16d6                  _lat_gps_
                    0x16da                  _lon_gps_
                    0x16de                  _alt_sl_gps_
                    0x16e2                  _hdop_
                    0x16e4                  _tow_
                    0x16e8                  _date_gps_
                    0x16ec                  _time_gps_
                    0x1746                  _turngainfbw
                    0x1748                  _turngainnav
                    0x174a                  _yawkpail
                    0x174c                  _yawkprud
                    0x174e                  _desired_bearing_over_ground
                    0x1752                  _vref_adj
                    0x1754                  _mpu_temp
                    0x175e                  _mpu_data
                    0x176e                  _udb_magOffset
                    0x1774                  _udb_staticMagOffset
                    0x177a                  _magGain
                    0x1780                  _rawMagCalib
                    0x1786                  _magMessage
                    0x17a0                  _desiredHeight
                    0x17a2                  _height_target_min
                    0x17a4                  _height_target_max
                    0x17a6                  _height_margin
                    0x17a8                  _alt_hold_throttle_min
                    0x17aa                  _alt_hold_throttle_max
                    0x17ac                  _alt_hold_pitch_min
                    0x17ae                  _alt_hold_pitch_max
                    0x17b0                  _alt_hold_pitch_high
                    0x17b2                  _rtl_pitch_down
                    0x17b4                  _desiredSpeed
                    0x17d0                  _tiltError
                    0x17d6                  _desiredRotationRateRadians
                    0x17dc                  _rotationRateError
                    0x17e2                  _GPSlocation
                    0x17e8                  _GPSvelocity
                    0x17ee                  _cos_lat
                    0x17f0                  _ground_velocity_magnitudeXY
                    0x17f2                  _forward_acceleration
                    0x17f4                  _air_speed_magnitudeXY
                    0x17f6                  _air_speed_3DGPS
                    0x1820                  _barometer_altitude
                    0x1824                  _barometer_agl_altitude
                    0x1828                  _barometer_pressure
                    0x182c                  _barometer_temperature
                    0x182e                  _sea_level_pressure
                    0x1832                  _gLastFATSectorRead
                    0x1836                  _gNeedFATWrite
                    0x1838                  _gBufferOwner
                    0x183a                  _gLastDataSectorRead
                    0x183e                  _gNeedDataWrite
                    0x183f                  _nextClusterIsLast
                    0x1840                  _gBufferZeroed
                    0x1841                  _recache
                    0x1842                  _cwdptr
                    0x1876                  _pitchgain
                    0x1878                  _pitchfdfwd
                    0x187a                  _pitchkd
                    0x187c                  _hoverpitchgain
                    0x187e                  _hoverpitchkd
                    0x1880                  _pitchrate
                    0x1882                  _elevInput
                    0x1884                  _yawkdail
                    0x1886                  _rollkp
                    0x1888                  _rollkpfdfwd
                    0x188a                  _rollkd
                    0x188c                  _hoverrollkp
                    0x188e                  _hoverrollkd
                    0x1890                  _yawkdrud
                    0x1892                  _rollkprud
                    0x1894                  _rollkdrud
                    0x1896                  _hoveryawkp
                    0x1898                  _hoveryawkd
                    0x189a                  _yawkpfdfwd
                    0x18b4                  _udb_magFieldBody
                    0x18ba                  _magFieldRaw
                    0x18c2                  _udb_pwOut
                    0x18de                  _current_orientation
                    0x18e0                  _desired_behavior
                    0x18e2                  _cam_pitch_servo_pwm_delta
                    0x18e4                  _cam_yaw_servo_pwm_delta
                    0x18ec                  _tofinish_line
                    0x18ee                  _progress_to_goal
                    0x18f0                  _desired_dir
                    0x18f1                  _extended_range
                    0x18f2                  _togoal
                    0x18f6                  _throttle_control
                    0x18f8                  _pitch_control
                    0x18fa                  _roll_control
                    0x18fc                  _yaw_control
                    0x18fe                  _wind_gain
                    0x190a                  _throttleFiltered
                    0x190e                  _pitchAltitudeAdjust
                    0x1910                  _filterManual
                    0x1912                  _waggle
                    0x1940                  _barometer_pressure_gnd
                    0x1944                  _barometer_temperature_gnd
                    0x1946                  _estimatedWind
                    0x195e                  _JmpStckPtr
                    0x1960                  _JmpAddrLow
                    0x1962                  _JmpAddrHgh
                    0x1964                  __Atcount
                    0x1966                  __Atfuns
                    0x196a                  __Size_block
                    0x196c                  __Aldata
                    0x197e                  _state_flags
                    0x1980                  _msg_parse
                    0x1982                  _store_index
                    0x1984                  _dcm_flags
                    0x1986                  _angleOfAttack
                    0x1988                  _one_hertz_flag
                    0x198a                  _udb_heartbeat_counter
                    0x1990                  _mpuCnt
                    0x1992                  _mpuDAV
                    0x1994                  _dmaErrFlag
                    0x1996                  _dmaPWErrLoc
                    0x199c                  _elevatorLoadingTrim
                    0x19a2                  _DmaBuffer
                    0x19a6                  _event_init_done
                    0x19a8                  _udb_flags
                    0x19aa                  _defaultCorcon
                    0x19ae                  _dmaRWErrLoc
                    0x19b2                  ___C30_UART
                    0x19ba                  ___curbrk
                    0x7fc0                  _BufferB
                    0x7fcc                  _payloadlength
                    0x7fce                  _un
                    0x7fcf                  _svs_
                    0x7fd0                  _nav_valid_
                    0x7fd2                  _nav_type_
                    0x7fd4                  _sog_gps_
                    0x7fd6                  _climb_gps_
                    0x7fd8                  _week_no_
                    0x7fda                  _cog_gps_
                    0x7fdc                  _checksum_
                    0x7fde                  _calculated_checksum
                    0x7fe0                  _BufferA
                    0x7fec                  _minimum_airspeed
                    0x7fee                  _maximum_airspeed
                    0x7ff0                  _cruise_airspeed
                    0x7ff2                  _airspeed_pitch_min_aspd
                    0x7ff4                  _airspeed_pitch_max_aspd
                    0x7ff6                  _minimum_groundspeed
                    0x7ff8                  _airspeed_pitch_adjust_rate
                    0x7ffa                  _airspeed_pitch_ki_limit
                    0x7ffc                  _airspeed_pitch_ki
                    0x7ffe                  _waypointIndex

External Symbols in Data Memory (by name):

                    0x7fe0                  _BufferA
                    0x7fc0                  _BufferB
                    0x19a2                  _DmaBuffer
                    0x10ce                  _FSerrno
                    0x10ca                  _FatRootDirClusterValue
                    0x17e2                  _GPSlocation
                    0x17e8                  _GPSvelocity
                    0x155e                  _IMUintegralAccelerationx
                    0x1562                  _IMUintegralAccelerationy
                    0x1566                  _IMUintegralAccelerationz
                    0x1552                  _IMUlocationx
                    0x1556                  _IMUlocationy
                    0x155a                  _IMUlocationz
                    0x1544                  _IMUvelocityx
                    0x1548                  _IMUvelocityy
                    0x154c                  _IMUvelocityz
                    0x1962                  _JmpAddrHgh
                    0x1960                  _JmpAddrLow
                    0x195e                  _JmpStckPtr
                    0x10d0                  _TempClusterCalc
                    0x196c                  __Aldata
                    0x1964                  __Atcount
                    0x1966                  __Atfuns
                    0x1250                  __Files
                    0x196a                  __Size_block
                    0x1260                  __Stderr
                    0x12b0                  __Stdin
                    0x1288                  __Stdout
                    0x19b2                  ___C30_UART
                    0x19ba                  ___curbrk
                    0x140e                  _accelEarth
                    0x15de                  _actual_dir
                    0x1420                  _aero_force
                    0x17f6                  _air_speed_3DGPS
                    0x156a                  _air_speed_3DIMU
                    0x17f4                  _air_speed_magnitudeXY
                    0x7ff8                  _airspeed_pitch_adjust_rate
                    0x7ffc                  _airspeed_pitch_ki
                    0x7ffa                  _airspeed_pitch_ki_limit
                    0x7ff4                  _airspeed_pitch_max_aspd
                    0x7ff2                  _airspeed_pitch_min_aspd
                    0x17b0                  _alt_hold_pitch_high
                    0x17ae                  _alt_hold_pitch_max
                    0x17ac                  _alt_hold_pitch_min
                    0x17aa                  _alt_hold_throttle_max
                    0x17a8                  _alt_hold_throttle_min
                    0x15ea                  _alt_origin
                    0x15f6                  _alt_sl_gps
                    0x16de                  _alt_sl_gps_
                    0x11e2                  _altit
                    0x1986                  _angleOfAttack
                    0x119c                  _asciiFilename
                    0x1824                  _barometer_agl_altitude
                    0x1820                  _barometer_altitude
                    0x1828                  _barometer_pressure
                    0x1940                  _barometer_pressure_gnd
                    0x182c                  _barometer_temperature
                    0x1944                  _barometer_temperature_gnd
                    0x7fde                  _calculated_checksum
                    0x15df                  _calculated_heading
                    0x18e2                  _cam_pitch_servo_pwm_delta
                    0x18e4                  _cam_yaw_servo_pwm_delta
                    0x7fdc                  _checksum_
                    0x1602                  _climb_gps
                    0x7fd6                  _climb_gps_
                    0x1600                  _cog_gps
                    0x7fda                  _cog_gps_
                    0x17ee                  _cos_lat
                    0x7ff0                  _cruise_airspeed
                    0x18de                  _current_orientation
                    0x1142                  _cwd
                    0x1842                  _cwdptr
                    0x16e8                  _date_gps_
                    0x1984                  _dcm_flags
                    0x1542                  _dead_reckon_clock
                    0x19aa                  _defaultCorcon
                    0x17a0                  _desiredHeight
                    0x17d6                  _desiredRotationRateRadians
                    0x17b4                  _desiredSpeed
                    0x174e                  _desired_bearing_over_ground
                    0x18e0                  _desired_behavior
                    0x18f0                  _desired_dir
                    0x10d4                  _dirCleared
                    0x1426                  _dirOverGndHGPS
                    0x142c                  _dirOverGndHrmat
                    0x1994                  _dmaErrFlag
                    0x1996                  _dmaPWErrLoc
                    0x19ae                  _dmaRWErrLoc
                    0x1882                  _elevInput
                    0x199c                  _elevatorLoadingTrim
                    0x1946                  _estimatedWind
                    0x19a6                  _event_init_done
                    0x1340                  _events
                    0x18f1                  _extended_range
                    0x119e                  _fileNameLength
                    0x1910                  _filterManual
                    0x17f2                  _forward_acceleration
                    0x1550                  _forward_ground_speed
                    0x1838                  _gBufferOwner
                    0x1840                  _gBufferZeroed
                    0x0c24                  _gDataBuffer
                    0x1178                  _gDiskData
                    0x0e24                  _gFATBuffer
                    0x1024                  _gFileArray
                    0x10c6                  _gFileSlotOpen
                    0x110c                  _gFileTemp
                    0x183a                  _gLastDataSectorRead
                    0x1832                  _gLastFATSectorRead
                    0x183e                  _gNeedDataWrite
                    0x1836                  _gNeedFATWrite
                    0x11a0                  _gains
                    0x15dc                  _gps_data_age
                    0x17f0                  _ground_velocity_magnitudeXY
                    0x15fa                  _hdop
                    0x16e2                  _hdop_
                    0x17a6                  _height_margin
                    0x17a4                  _height_target_max
                    0x17a2                  _height_target_min
                    0x15e0                  _hilsim_airspeed
                    0x1206                  _hover
                    0x187c                  _hoverpitchgain
                    0x187e                  _hoverpitchkd
                    0x188e                  _hoverrollkd
                    0x188c                  _hoverrollkp
                    0x1898                  _hoveryawkd
                    0x1896                  _hoveryawkp
                    0x15ee                  _lat_gps
                    0x16d6                  _lat_gps_
                    0x15e2                  _lat_origin
                    0x156e                  _locationErrorEarth
                    0x1310                  _logoStack
                    0x15f2                  _lon_gps
                    0x16da                  _lon_gps_
                    0x15e6                  _lon_origin
                    0x18ba                  _magFieldRaw
                    0x177a                  _magGain
                    0x1786                  _magMessage
                    0x7fee                  _maximum_airspeed
                    0x7fec                  _minimum_airspeed
                    0x7ff6                  _minimum_groundspeed
                    0x1990                  _mpuCnt
                    0x1992                  _mpuDAV
                    0x175e                  _mpu_data
                    0x1754                  _mpu_temp
                    0x1980                  _msg_parse
                    0x7fd2                  _nav_type_
                    0x7fd0                  _nav_valid_
                    0x183f                  _nextClusterIsLast
                    0x1414                  _omegaAccum
                    0x1408                  _omegagyro
                    0x1988                  _one_hertz_flag
                    0x0806                  _osc_fail_count
                    0x7fcc                  _payloadlength
                    0x190e                  _pitchAltitudeAdjust
                    0x18f8                  _pitch_control
                    0x1878                  _pitchfdfwd
                    0x1876                  _pitchgain
                    0x187a                  _pitchkd
                    0x1880                  _pitchrate
                    0x18ee                  _progress_to_goal
                    0x1780                  _rawMagCalib
                    0x1841                  _recache
                    0x13f6                  _rmat
                    0x18fa                  _roll_control
                    0x188a                  _rollkd
                    0x1894                  _rollkdrud
                    0x1886                  _rollkp
                    0x1888                  _rollkpfdfwd
                    0x1892                  _rollkprud
                    0x17dc                  _rotationRateError
                    0x17b2                  _rtl_pitch_down
                    0x1540                  _sample_count
                    0x182e                  _sea_level_pressure
                    0x124e                  _settings
                    0x15fe                  _sog_gps
                    0x7fd4                  _sog_gps_
                    0x197e                  _state_flags
                    0x1982                  _store_index
                    0x15fb                  _svs
                    0x7fcf                  _svs_
                    0x10d6                  _tempCWDobj
                    0x190a                  _throttleFiltered
                    0x18f6                  _throttle_control
                    0x17d0                  _tiltError
                    0x16ec                  _time_gps_
                    0x18ec                  _tofinish_line
                    0x18f2                  _togoal
                    0x156c                  _total_energy
                    0x1604                  _tow
                    0x16e4                  _tow_
                    0x0804                  _trap_flags
                    0x0800                  _trap_source
                    0x1746                  _turngainfbw
                    0x1748                  _turngainnav
                    0x122e                  _turns
                    0x1536                  _udb_5v
                    0x1504                  _udb_analogInputs
                    0x19a8                  _udb_flags
                    0x198a                  _udb_heartbeat_counter
                    0x18b4                  _udb_magFieldBody
                    0x176e                  _udb_magOffset
                    0x161c                  _udb_pwIn
                    0x18c2                  _udb_pwOut
                    0x1628                  _udb_pwTrim
                    0x1774                  _udb_staticMagOffset
                    0x152c                  _udb_vcc
                    0x14b6                  _udb_vref
                    0x147a                  _udb_xaccel
                    0x1498                  _udb_xrate
                    0x1484                  _udb_yaccel
                    0x14a2                  _udb_yrate
                    0x148e                  _udb_zaccel
                    0x14ac                  _udb_zrate
                    0x7fce                  _un
                    0x1574                  _velocityErrorEarth
                    0x1752                  _vref_adj
                    0x1912                  _waggle
                    0x7ffe                  _waypointIndex
                    0x15fc                  _week_no
                    0x7fd8                  _week_no_
                    0x18fe                  _wind_gain
                    0x18fc                  _yaw_control
                    0x1884                  _yawkdail
                    0x1890                  _yawkdrud
                    0x174a                  _yawkpail
                    0x189a                  _yawkpfdfwd
                    0x174c                  _yawkprud

External Symbols in Program Memory (by address):

                  0x000200                  __resetPRI
                  0x000222                  __psv_init
                  0x000232                  ___delay32
                  0x00024e                  __data_init_standard
                  0x00024e                  __data_init
                  0x000390                  __DefaultInterrupt
                  0x0004ee                  _strchr
                  0x000500                  _puts
                  0x00051a                  __Setjmp
                  0x000536                  _longjmp
                  0x000558                  __Assert
                  0x00058c                  _strlen
                  0x00059a                  _toupper
                  0x0005a8                  _strtol
                  0x00063a                  __Stof
                  0x0006e4                  _strcmp
                  0x000708                  _strncpy
                  0x00072a                  _fopen
                  0x000740                  __Closreg
                  0x000754                  _fclose
                  0x0007d8                  fclose.XXo:_closeall
                  0x0007f0                  _fwrite
                  0x00089a                  __Stoul
                  0x0009c2                  _memset
                  0x0009d0                  printf_cdnopsuxX.XXo:_prout
                  0x0009ea                  __printf_cdnopuxX
                  0x0009ea                  __printf_0
                  0x0009ea                  __printf_cdnopsuxX
                  0x0009ea                  __printf_s
                  0x0009fa                  _tolower
                  0x000a08                  sprintf_cdfFnopuxX.XXo:_prout
                  0x000a14                  __sprintf_cdfFnopuxX
                  0x000a14                  __sprintf_fF
                  0x000a14                  __sprintf_cdnopuxX
                  0x000a36                  _fputs
                  0x000ac2                  _fputc
                  0x000b0e                  __DNKfflush
                  0x000b88                  _raise
                  0x000c0e                  _exit
                  0x000c32                  _isspace
                  0x000c42                  __Stopfx
                  0x000d4c                  __Stoflt
                  0x000f10                  __Stoxflt
                  0x0010fa                  __FDscale
                  0x0011da                  __FDtento
                  0x0012c8                  _memcpy
                  0x0012d6                  __Fofind
                  0x001314                  __Foprep
                  0x0013ca                  __Atexit
                  0x0013e4                  _free
                  0x00144c                  __Fwprep
                  0x0014d2                  _memchr
                  0x0014e6                  _strrchr
                  0x0014fc                  _signal
                  0x001518                  _isalnum
                  0x001534                  __FDnorm
                  0x00158a                  __FDunscale
                  0x0015d6                  __Feraise
                  0x0015ec                  __Vacopy
                  0x0015f6                  __Puttxt
                  0x00178a                  _malloc
                  0x00182e                  __Fopen
                  0x001862                  __Litob
                  0x001b74                  __Getmem
                  0x001b82                  __LDunscale
                  0x001bda                  _ldiv
                  0x001c14                  __Dnorm
                  0x001cac                  _div
                  0x001d64                  ___mulp32peds3
                  0x001d64                  ___mulp32eds3
                  0x001d64                  ___mulsi3
                  0x001d70                  ___Putfld_cdfFnopuxX
                  0x001d70                  ___Putfld_fF
                  0x001d70                  ___Putfld_cdnopuxX
                  0x001d70                  ___Putfld_cdnopsuxX
                  0x001d70                  ___Putfld_cdfFnopsuxX
                  0x001d70                  ___Putfld_s
                  0x00206c                  ___Printf_cdnopuxX
                  0x00206c                  ___Printf_s
                  0x00206c                  ___Printf_cdfFnopuxX
                  0x00206c                  ___Printf_fF
                  0x00206c                  ___Printf_cdnopsuxX
                  0x00206c                  ___Printf_cdfFnopsuxX
                  0x0021de                  ___Ldtob_cdfFnopsuxX
                  0x0021de                  ___Ldtob_fF
                  0x0021de                  ___Ldtob_cdfFnopuxX
                  0x002424                  ___Genld_fF
                  0x002424                  ___Genld_cdfFnopuxX
                  0x002424                  ___Genld_cdfFnopsuxX
                  0x002632                  ___fixsfsi
                  0x002674                  ___mulsf3
                  0x0026dc                  ___floatsisf
                  0x002732                  ___subsf3
                  0x002734                  ___addsf3
                  0x0027ee                  ___divsf3
                  0x002872                  ___fixunssfsi
                  0x0028a8                  ___divsi3
                  0x0028c6                  ___gesf2
                  0x0028c6                  ___gtsf2
                  0x0028ca                  ___modsi3
                  0x0028e8                  _sqrtf
                  0x002952                  _powf
                  0x002b3e                  ___udivmoddi3
                  0x002c0c                  ___udivdi3
                  0x002c1a                  ___umoddi3
                  0x002c22                  ___divdi3
                  0x002c5c                  ___moddi3
                  0x002d2e                  ___udivsi3
                  0x002d4e                  __funpack
                  0x002d78                  __funpack2
                  0x002d88                  __fPropagateNaN
                  0x002d9a                  __fbopExit
                  0x002da2                  __fbopReturnNaN
                  0x002da8                  __fpack
                  0x002df4                  __fcompare
                  0x002e2a                  ___umodsi3
                  0x002e30                  __fchop
                  0x002e7e                  __frexpf
                  0x002e98                  ___eqsf2
                  0x002e98                  ___ltsf2
                  0x002e98                  ___lesf2
                  0x002e9c                  _ldexpf
                  0x002ee0                  _logf
                  0x002f8e                  _expf
                  0x003052                  ___extendsfdf2
                  0x003090                  ___eqdf2
                  0x003090                  ___ltdf2
                  0x003090                  ___ledf2
                  0x00309a                  ___muldf3
                  0x003184                  ___divdf3
                  0x003238                  ___fixdfsi
                  0x003290                  ___floatsidf
                  0x003296                  ___subdf3
                  0x00329a                  ___gedf2
                  0x00329a                  ___gtdf2
                  0x0032a4                  ___muldi3
                  0x003300                  __dcompare
                  0x003352                  __dunpack2
                  0x003374                  __dreturnNaN
                  0x00337a                  __dunpack2exit
                  0x003384                  __dpack
                  0x0033dc                  __dunpack
                  0x00342a                  ___floatdidf
                  0x003498                  ___adddf3
                  0x003592                  ___umuldi3
                  0x0035d6                  __dtype
                  0x0035fa                  __dPropagateNaN
                  0x003616                  _FindFirstBitChangeFromLeft
                  0x00361a                  _FindFirstBitFromLeft
                  0x00361e                  _MatrixAdd
                  0x00365e                  _MatrixMultiply
                  0x0036d8                  _MatrixScale
                  0x003714                  _MatrixSubtract
                  0x003762                  _MatrixTranspose
                  0x0037aa                  _VectorAdd
                  0x0037e8                  _VectorConvolve
                  0x0038e0                  _VectorCopy
                  0x0038f0                  _VectorCorrelate
                  0x003920                  _VectorDotProduct
                  0x00395a                  _VectorMax
                  0x003974                  _VectorMin
                  0x00398e                  _VectorMultiply
                  0x0039ca                  _VectorNegate
                  0x003a0a                  _VectorPower
                  0x003a42                  _VectorScale
                  0x003a7e                  _VectorSubtract
                  0x003aca                  _VectorZeroPad
                  0x003ae8                  _CloseSPI2
                  0x003af0                  _ConfigIntSPI2
                  0x003b1a                  _OpenSPI2
                  0x00417e                  _bin_mode
                  0x00419a                  _mode
                  0x0041a4                  _mode_length
                  0x0041a6                  _msg41parse
                  0x00425e                  _BootSector
                  0x00429c                  _FAT0
                  0x00429f                  _RootDirectory0
                  0x0043d2                  _sintab
                  0x004454                  _instructions
                  0x004480                  _rtlInstructions
                  0x0044a8                  _waypoints
                  0x0044be                  _rtlWaypoints
                  0x0044d4                  _wp_inject_byte_order
                  0x0045ba                  _pitch_servo_high_ratio
                  0x0045bc                  _yaw_servo_high_ratio
                  0x0045be                  _tan_pitch_in_stabilized_mode
                  0x0045c0                  _pitch_offset_centred_pwm
                  0x0045c2                  _yaw_offset_centred_pwm
                  0x0045c4                  _pitch_servo_pwm_max
                  0x0045c6                  _pitch_servo_pwm_min
                  0x0045c8                  _yaw_servo_pwm_max
                  0x0045ca                  _yaw_servo_pwm_min
                  0x0045cc                  _days_in_month
                  0x0045d8                  _FSInit
                  0x00462e                  _FILEfind
                  0x004812                  _FILEopen
                  0x00495c                  _FILEget_next_cluster
                  0x004a34                  _DISKmount
                  0x004afa                  _LoadMBR
                  0x004d74                  _LoadBootSector
                  0x0051ce                  _GetFullClusterNumber
                  0x0051fc                  _Write_File_Entry
                  0x0052b0                  _FAT_erase_cluster_chain
                  0x0053a0                  _Cache_File_Entry
                  0x0055da                  _CreateFileEntry
                  0x00562e                  _CreateFirstCluster
                  0x005678                  _FindEmptyEntries
                  0x00577e                  _PopulateEntries
                  0x005850                  _FILEallocate_new_cluster
                  0x0058e8                  _FATfindEmptyCluster
                  0x0059f2                  _FSfclose
                  0x005afc                  _IncrementTimeStamp
                  0x005bf0                  _Fill_File_Object
                  0x005d50                  _LoadDirAttrib
                  0x005dd6                  _FILEerase
                  0x005ebc                  _FSrename
                  0x005fbc                  _FSfopen
                  0x00633a                  _FSftell
                  0x00634e                  _FSremove
                  0x00641a                  _FSrewind
                  0x006450                  _FSerror
                  0x00645c                  _FileObjectCopy
                  0x006494                  _FILECreateHeadCluster
                  0x006520                  _EraseCluster
                  0x0065e0                  _ReadByte
                  0x0065f2                  _ReadWord
                  0x006626                  _ReadDWord
                  0x00665a                  _Cluster2Sector
                  0x0066f0                  _FSattrib
                  0x006798                  _FSfwrite
                  0x006a8a                  _flushData
                  0x006ae8                  _FSfeof
                  0x006b12                  _FSfread
                  0x006d4e                  _FormatFileName
                  0x006f60                  _ValidateChars
                  0x007056                  _FSfseek
                  0x0072f8                  _ReadFAT
                  0x0076ea                  _WriteFAT
                  0x007aca                  _FindFirst
                  0x007ce6                  _FindNext
                  0x007f3c                  _strnicmp
                  0x008554                  _ini_gets
                  0x0085c2                  _ini_getl
                  0x008634                  _ini_getf
                  0x008676                  _ini_getbool
                  0x0086f2                  _ini_getsection
                  0x008758                  _ini_getkey
                  0x0087c0                  _ini_browse
                  0x008c00                  _ini_puts
                  0x009124                  _ini_putl
                  0x009146                  _ini_putf
                  0x009172                  _flightplan_logo_index_get
                  0x00917a                  _flightplan_logo_init
                  0x009180                  _flightplan_logo_begin
                  0x0092f0                  _flightplan_logo_update
                  0x00a08e                  _flightplan_logo_live_begin
                  0x00a0a2                  _flightplan_logo_live_received_byte
                  0x00a152                  _flightplan_logo_live_commit
                  0x00a9f6                  _config_load
                  0x00aa1e                  _config_save
                  0x00aa3a                  _config_init
                  0x00aa42                  _sine
                  0x00aaa2                  _arcsine
                  0x00ab4a                  _cosine
                  0x00ab58                  _rotate_2D_vector_by_vector
                  0x00abc6                  _rotate_2D_long_vector_by_vector
                  0x00ac24                  _rotate_2D_vector_by_angle
                  0x00ac40                  _rotate_2D
                  0x00acaa                  _rect_to_polar
                  0x00ad66                  _rect_to_polar16
                  0x00ae3c                  _sqrt_int
                  0x00aea4                  _sqrt_long
                  0x00af5c                  _vector2_mag
                  0x00af7c                  _vector3_mag
                  0x00afa8                  _vector2_normalize
                  0x00b008                  _vector3_normalize
                  0x00b090                  _long_scale
                  0x00b120                  _find_first_bit_int16
                  0x00b150                  _find_first_bit_int32
                  0x00b1ac                  _VectorCross
                  0x00b25c                  _yaw_drift_reset
                  0x00b26e                  _dcm_init_rmat
                  0x00b274                  _udb_callback_read_sensors
                  0x00b86a                  _dcm_run_imu_step
                  0x00b886                  _init_altitudeCntrl
                  0x00b908                  _save_altitudeCntrl
                  0x00b976                  _altitudeCntrl
                  0x00b9e6                  _setTargetAltitude
                  0x00bfac                  _helicalTurnCntrl
                  0x00c40e                  _waypoint_count
                  0x00c546                  _clear_flightplan
                  0x00c550                  _add_waypoint
                  0x00c574                  _flightplan_waypoints_index_get
                  0x00c57c                  _flightplan_waypoints_init
                  0x00c588                  _flightplan_waypoints_begin
                  0x00c5ec                  _getWaypoint3D
                  0x00c64c                  _set_waypoint
                  0x00c7d6                  _flightplan_waypoints_update
                  0x00c8b2                  _flightplan_waypoints_live_begin
                  0x00c8be                  _flightplan_waypoints_live_received_byte
                  0x00c8fc                  _flightplan_waypoints_live_commit
                  0x00c918                  _navigate_get_goal
                  0x00c938                  _init_navigation
                  0x00c996                  _save_navigation
                  0x00ca54                  _dcm_callback_gps_location_updated
                  0x00ca6a                  _navigate_set_goal
                  0x00cad8                  _navigate_set_goal_height
                  0x00cae4                  _navigate_process_flightplan
                  0x00cb50                  _navigate_desired_height
                  0x00cc6a                  _navigate_compute_bearing_to_goal
                  0x00ccfa                  _wind_gain_adjustment
                  0x00cd02                  _navigate_determine_deflection
                  0x00d2f2                  _init_states
                  0x00d314                  _udb_callback_radio_did_turn_off
                  0x00d320                  _udb_heartbeat_40hz_callback
                  0x00d58e                  build\UDB5\states.o:_startS
                  0x00d596                  build\UDB5\states.o:_calibrateS
                  0x00d5d6                  build\UDB5\states.o:_acquiringS
                  0x00d644                  build\UDB5\states.o:_manualS
                  0x00d688                  build\UDB5\states.o:_stabilizedS
                  0x00d6c8                  build\UDB5\states.o:_waypointS
                  0x00d710                  build\UDB5\states.o:_returnS
                  0x00d74e                  _I2C2_Normal
                  0x00d782                  _I2C2_Reset
                  0x00d7ee                  _I2C2_trigger_service
                  0x00d7fa                  build\UDB5\I2C2.o:_serviceI2C2
                  0x00d810                  __MI2C2Interrupt
                  0x00d838                  _I2C2_Write
                  0x00d8cc                  _I2C2_Read
                  0x00d91a                  _I2C2_checkACK
                  0x00d95c                  build\UDB5\I2C2.o:_isr_startWrite
                  0x00d978                  build\UDB5\I2C2.o:_isr_writeAddress
                  0x00d98e                  build\UDB5\I2C2.o:_isr_writeCommandData
                  0x00d9da                  build\UDB5\I2C2.o:_isr_writeData
                  0x00da18                  build\UDB5\I2C2.o:_isr_writeStop
                  0x00da24                  build\UDB5\I2C2.o:_isr_doneWrite
                  0x00da3c                  build\UDB5\I2C2.o:_isr_readStart
                  0x00da4c                  build\UDB5\I2C2.o:_isr_readAddress
                  0x00da7c                  build\UDB5\I2C2.o:_isr_recen
                  0x00da96                  build\UDB5\I2C2.o:_isr_rerecen
                  0x00daa2                  build\UDB5\I2C2.o:_isr_recstore
                  0x00dad0                  build\UDB5\I2C2.o:_isr_stopRead
                  0x00dadc                  build\UDB5\I2C2.o:_isr_idle
                  0x00dae2                  build\UDB5\I2C2.o:_isr_doneRead
                  0x00db18                  _udb_servo_record_trims
                  0x00db40                  _radioIn_init
                  0x00dc06                  _radioIn_failsafe_check
                  0x00dc40                  _radioIn_failsafe_reset
                  0x00dc7e                  __IC1Interrupt
                  0x00dcca                  __IC2Interrupt
                  0x00dd16                  __IC3Interrupt
                  0x00dd62                  __IC4Interrupt
                  0x00ddae                  __IC5Interrupt
                  0x00ddfa                  __IC6Interrupt
                  0x00de46                  __IC7Interrupt
                  0x00de92                  __IC8Interrupt
                  0x00dee0                  _vect2_16x16_rotate
                  0x00df40                  _vect2_32x16_rotate
                  0x00df9a                  _vect2_16phi_rotate
                  0x00dfba                  _vect2_polar
                  0x00e060                  _vect2_polar_16
                  0x00e122                  _vect2_16_mag
                  0x00e14a                  _vect3_16_mag
                  0x00e180                  _vect2_16_norm
                  0x00e1d6                  _vect3_16_norm
                  0x00e24c                  _get_gps_date
                  0x00e256                  _get_gps_time
                  0x00e260                  _gps_init
                  0x00e272                  _gpsoutbin
                  0x00e290                  _gpsoutline
                  0x00e2a8                  _udb_gps_callback_get_byte_to_send
                  0x00e2dc                  _udb_gps_callback_received_byte
                  0x00e2ea                  _gps_nav_capable_check_set
                  0x00e324                  build\UDB5\gpsParseCommon.o:_gps_parse_common_callback
                  0x00e392                  _gps_parse_common
                  0x00e39e                  _calculate_week_num
                  0x00e49c                  _calculate_time_of_week
                  0x00e596                  _I2C1_Init
                  0x00e5c2                  _I2C1_trigger_service
                  0x00e5ce                  build\UDB5\I2C1.o:_serviceI2C1
                  0x00e5e4                  __MI2C1Interrupt
                  0x00e60c                  _I2C1_Write
                  0x00e69c                  _I2C1_Read
                  0x00e6e6                  _I2C1_CheckAck
                  0x00e720                  build\UDB5\I2C1.o:_I2C1_startWrite
                  0x00e730                  build\UDB5\I2C1.o:_I2C1_writeAddress
                  0x00e746                  build\UDB5\I2C1.o:_I2C1_writeCommandData
                  0x00e792                  build\UDB5\I2C1.o:_I2C1_writeData
                  0x00e7d0                  build\UDB5\I2C1.o:_I2C1_writeStop
                  0x00e7dc                  build\UDB5\I2C1.o:_I2C1_doneWrite
                  0x00e7f4                  build\UDB5\I2C1.o:_I2C1_readStart
                  0x00e804                  build\UDB5\I2C1.o:_I2C1_readAddress
                  0x00e818                  build\UDB5\I2C1.o:_I2C1_recen
                  0x00e832                  build\UDB5\I2C1.o:_I2C1_rerecen
                  0x00e83e                  build\UDB5\I2C1.o:_I2C1_recstore
                  0x00e86c                  build\UDB5\I2C1.o:_I2C1_stopRead
                  0x00e878                  build\UDB5\I2C1.o:_I2C1_idle
                  0x00e87e                  build\UDB5\I2C1.o:_I2C1_doneRead
                  0x00e8b4                  _init_yawCntrl
                  0x00e946                  _save_yawCntrl
                  0x00ea38                  _yawCntrl
                  0x00ea52                  _normalYawCntrl
                  0x00eb34                  _hoverYawCntrl
                  0x00eba8                  _estWind
                  0x00ee8e                  _PageErase
                  0x00ee96                  build\UDB5\EEPROM.o:_MCP24LC256_callback
                  0x00eeec                  _eeprom_service
                  0x00ef16                  _block
                  0x00ef4e                  _ReadPage
                  0x00ef9a                  _ReadSector
                  0x00efee                  _WritePage
                  0x00f038                  _WriteSector
                  0x00f07c                  _eeprom_test_read
                  0x00f0f6                  _eeprom_test_write
                  0x00f15c                  _init_rollCntrl
                  0x00f1f6                  _save_rollCntrl
                  0x00f2e8                  _rollCntrl
                  0x00f302                  _normalRollCntrl
                  0x00f3a8                  _hoverRollCntrl
                  0x00f428                  _udb_init_GPS
                  0x00f49a                  _udb_gps_set_rate
                  0x00f4c4                  _udb_gps_check_rate
                  0x00f4fe                  _udb_gps_start_sending_data
                  0x00f506                  __U1TXInterrupt
                  0x00f546                  __U1RXInterrupt
                  0x00f586                  _udb_init_USART
                  0x00f5f8                  _udb_serial_set_rate
                  0x00f622                  _udb_serial_check_rate
                  0x00f65c                  _udb_serial_start_sending_data
                  0x00f664                  __U2TXInterrupt
                  0x00f6a4                  __U2RXInterrupt
                  0x00f6e4                  _init_pitchCntrl
                  0x00f75c                  _save_pitchCntrl
                  0x00f81e                  _pitchCntrl
                  0x00f98c                  _dead_reckon
                  0x00fc2c                  _udb_init_ADC
                  0x00fd06                  __DMA0Interrupt
                  0x00fee2                  _log_telemetry
                  0x00ff0c                  _log_swapbuf
                  0x00ffcc                  _log_close
                  0x010066                  _telemetry_log
                  0x010096                  _SetAofA
                  0x0100a2                  _GetAofA
                  0x0100aa                  _dcm_init
                  0x0100fc                  _udb_heartbeat_callback
                  0x010170                  _dcm_calibrate
                  0x010184                  _dcm_set_origin_location
                  0x0101c4                  _dcm_absolute_to_relative
                  0x010222                  _dcm_rel2abs
                  0x0102a8                  _servoMix_init
                  0x0102d2                  _servoMix
                  0x010406                  _cameraServoMix
                  0x0104a8                  _udb_eeprom_init
                  0x0105ae                  _eeprom_ByteWrite
                  0x0105d2                  _eeprom_PageWrite
                  0x01060e                  _eeprom_ByteRead
                  0x010642                  _eeprom_SequentialRead
                  0x0106a2                  _register_event
                  0x0106b0                  _register_event_p
                  0x010700                  _trigger_event
                  0x01074e                  _init_events
                  0x0107b4                  __C2Interrupt
                  0x010820                  __C1Interrupt
                  0x0108f8                  _estLocation
                  0x010a6c                  _gps_nav_valid
                  0x010a82                  _gps_startup_sequence
                  0x010ac6                  build\UDB5\gpsParseSTD.o:_msg_B3
                  0x010ad8                  build\UDB5\gpsParseSTD.o:_msg_A0
                  0x010af4                  build\UDB5\gpsParseSTD.o:_msg_A2
                  0x010b04                  build\UDB5\gpsParseSTD.o:_msg_PL1
                  0x010b1a                  build\UDB5\gpsParseSTD.o:_msg_PL2
                  0x010b50                  build\UDB5\gpsParseSTD.o:_msg_MSG41
                  0x010b94                  build\UDB5\gpsParseSTD.o:_msg_MSGU
                  0x010bba                  build\UDB5\gpsParseSTD.o:_msg_B0
                  0x010bea                  _gps_commit_data
                  0x010c30                  _gps_update_basic_data
                  0x010c3e                  _init_gps_std
                  0x010c44                  _initMPUSPI_master16
                  0x010c8c                  _writeMPUSPIreg16
                  0x010cc2                  build\UDB5\mpu_spi.o:_no_call_back
                  0x010cc8                  _readMPUSPI_burst16n
                  0x010d00                  __SPI2Interrupt
                  0x010dbe                  _readMPUSPIreg16
                  0x010df8                  _servoOut_init
                  0x010e44                  _udb_servo_pulsesat
                  0x010e6e                  _udb_set_action_state
                  0x010e8a                  _start_pwm_outputs
                  0x010ea0                  __T4Interrupt
                  0x010f82                  _udb_cpu_load
                  0x010f94                  _cpu_load_calc
                  0x010fa6                  _udb_init_clock
                  0x011032                  __T1Interrupt
                  0x01105a                  __T5Interrupt
                  0x011078                  __T6Interrupt
                  0x0110a6                  _udb_background_trigger_pulse
                  0x0110b4                  __T7Interrupt
                  0x0110e2                  _udb_background_trigger
                  0x0110f0                  _init_behavior
                  0x011102                  _setBehavior
                  0x011128                  _canStabilizeInverted
                  0x011130                  _canStabilizeHover
                  0x011138                  _updateBehavior
                  0x0111fe                  _updateTriggerAction
                  0x011258                  _inflight_state
                  0x01135c                  _flight_state_8hz
                  0x011396                  _MPU6000_init16
                  0x011420                  build\UDB5\mpu6000.o:_process_MPU_data
                  0x01146a                  __INT3Interrupt
                  0x011490                  _MPU6000_print
                  0x0114c0                  _get_reset_flags
                  0x0115c0                  _mcu_init
                  0x0115e6                  _use_fixed_origin
                  0x0115ee                  _get_fixed_origin
                  0x011652                  _flightplan_init
                  0x011660                  _flightplan_begin
                  0x01167e                  _flightplan_update
                  0x011696                  _flightplan_index_get
                  0x0116b4                  _flightplan_live_begin
                  0x0116cc                  _flightplan_live_received_byte
                  0x0116ea                  _flightplan_live_commit
                  0x011702                  _flight_mode_switch_manual
                  0x011710                  _flight_mode_switch_stabilize
                  0x01171e                  _flight_mode_switch_waypoints
                  0x01172c                  _flight_mode_switch_2pos_poll
                  0x011732                  _flight_mode_switch_check_set
                  0x0117fe                  _servoPrepare_init
                  0x0118e4                  _dcm_heartbeat_callback
                  0x0118fa                  _restart
                  0x011914                  __OscillatorFail
                  0x011940                  __AddressError
                  0x011966                  __StackError
                  0x01198c                  __MathError
                  0x0119b2                  __DMACError
                  0x0119d8                  _heartbeat_chk
                  0x011a06                  _heartbeat_cnt
                  0x011a0e                  _heartbeat
                  0x011a62                  build\UDB5\heartbeat.o:_heartbeat_pulse
                  0x011aa4                  _EEPROM_FormatFS
                  0x011b6c                  _get_air_density
                  0x011b94                  _calc_indicated_airspeed
                  0x011bc0                  _calc_true_airspeed_from_indicated
                  0x011bee                  _calc_true_airspeed
                  0x011c2a                  _filesys_chkdsk
                  0x011c36                  _filesys_dir
                  0x011c72                  _filesys_cat
                  0x011cb2                  _filesys_format
                  0x011cc6                  _filesys_init
                  0x011cce                  _MDD_EEPROM_MediaDetect
                  0x011cd6                  _MDD_EEPROM_ReadSectorSize
                  0x011cde                  _MDD_EEPROM_ReadCapacity
                  0x011ce8                  _MDD_EEPROM_InitIO
                  0x011cf4                  _MDD_EEPROM_MediaInitialize
                  0x011d0c                  _MDD_EEPROM_SectorRead
                  0x011d34                  _MDD_EEPROM_SectorWrite
                  0x011d5e                  _MDD_EEPROM_WriteProtectState
                  0x011d66                  _cam_pitchServoLimit
                  0x011d90                  _cam_yawServoLimit
                  0x011dba                  _set_camera_view
                  0x011dd2                  _compute_camera_view
                  0x011df0                  _cameraCntrl
                  0x011df6                  _dcm_enable_yaw_drift_correction
                  0x011e1c                  _estYawDrift
                  0x011e7e                  _get_barometer_temperature
                  0x011e86                  _get_barometer_pressure
                  0x011e90                  _get_barometer_altitude
                  0x011e9a                  _get_barometer_agl_altitude
                  0x011ea4                  _altimeter_calibrate
                  0x011efe                  _estAltitude
                  0x011f04                  _matrixpilot_init
                  0x011f34                  _matrixpilot_loop
                  0x011f40                  _main
                  0x011f52                  _udb_init
                  0x011f8a                  _udb_run
                  0x011f92                  _SP_start
                  0x011f96                  _SP_limit
                  0x011f9a                  _SP_current
                  0x011f9e                  _getErrLoc
                  0x011fb4                  _setjmp
                  0x011fca                  _gentrap
                  0x011fd2                  _get_geo_heading_angle
                  0x01200e                  _init_airspeedCntrl
                  0x012038                  _save_airspeedCntrl
                  0x01203e                  _udb_serial_callback_get_byte_to_send
                  0x012046                  _udb_serial_callback_received_byte
                  0x01204e                  _telemetry_restart
                  0x012054                  _telemetry_output_8hz
                  0x01205a                  _telemetry_init
                  0x012060                  _udb_a2d_record_offsets
                  0x012082                  _mavlink_init
                  0x012088                  _mavlink_callback_get_byte_to_send
                  0x012090                  _mavlink_callback_received_byte
                  0x012098                  _init_analogs
                  0x01209e                  _calculate_analog_sensor_values
                  0x0120a4                  _mp_osd_run_step
                  0x0120ac                  _init_altitudeCntrlVariable
                  0x0120b2                  _calculate_sonar_height_above_ground
                  0x0120b8                  _osd_init
                  0x0120be                  _init_uart
                  0xf80004                  __FGS.sec

External Symbols in Program Memory (by name):

                  0x00425e                  _BootSector
                  0x0053a0                  _Cache_File_Entry
                  0x003ae8                  _CloseSPI2
                  0x00665a                  _Cluster2Sector
                  0x003af0                  _ConfigIntSPI2
                  0x0055da                  _CreateFileEntry
                  0x00562e                  _CreateFirstCluster
                  0x004a34                  _DISKmount
                  0x011aa4                  _EEPROM_FormatFS
                  0x006520                  _EraseCluster
                  0x00429c                  _FAT0
                  0x0052b0                  _FAT_erase_cluster_chain
                  0x0058e8                  _FATfindEmptyCluster
                  0x006494                  _FILECreateHeadCluster
                  0x005850                  _FILEallocate_new_cluster
                  0x005dd6                  _FILEerase
                  0x00462e                  _FILEfind
                  0x00495c                  _FILEget_next_cluster
                  0x004812                  _FILEopen
                  0x0045d8                  _FSInit
                  0x0066f0                  _FSattrib
                  0x006450                  _FSerror
                  0x0059f2                  _FSfclose
                  0x006ae8                  _FSfeof
                  0x005fbc                  _FSfopen
                  0x006b12                  _FSfread
                  0x007056                  _FSfseek
                  0x00633a                  _FSftell
                  0x006798                  _FSfwrite
                  0x00634e                  _FSremove
                  0x005ebc                  _FSrename
                  0x00641a                  _FSrewind
                  0x00645c                  _FileObjectCopy
                  0x005bf0                  _Fill_File_Object
                  0x005678                  _FindEmptyEntries
                  0x007aca                  _FindFirst
                  0x003616                  _FindFirstBitChangeFromLeft
                  0x00361a                  _FindFirstBitFromLeft
                  0x007ce6                  _FindNext
                  0x006d4e                  _FormatFileName
                  0x0100a2                  _GetAofA
                  0x0051ce                  _GetFullClusterNumber
                  0x00e6e6                  _I2C1_CheckAck
                  0x00e596                  _I2C1_Init
                  0x00e69c                  _I2C1_Read
                  0x00e60c                  _I2C1_Write
                  0x00e5c2                  _I2C1_trigger_service
                  0x00d74e                  _I2C2_Normal
                  0x00d8cc                  _I2C2_Read
                  0x00d782                  _I2C2_Reset
                  0x00d838                  _I2C2_Write
                  0x00d91a                  _I2C2_checkACK
                  0x00d7ee                  _I2C2_trigger_service
                  0x005afc                  _IncrementTimeStamp
                  0x004d74                  _LoadBootSector
                  0x005d50                  _LoadDirAttrib
                  0x004afa                  _LoadMBR
                  0x011ce8                  _MDD_EEPROM_InitIO
                  0x011cce                  _MDD_EEPROM_MediaDetect
                  0x011cf4                  _MDD_EEPROM_MediaInitialize
                  0x011cde                  _MDD_EEPROM_ReadCapacity
                  0x011cd6                  _MDD_EEPROM_ReadSectorSize
                  0x011d0c                  _MDD_EEPROM_SectorRead
                  0x011d34                  _MDD_EEPROM_SectorWrite
                  0x011d5e                  _MDD_EEPROM_WriteProtectState
                  0x011396                  _MPU6000_init16
                  0x011490                  _MPU6000_print
                  0x00361e                  _MatrixAdd
                  0x00365e                  _MatrixMultiply
                  0x0036d8                  _MatrixScale
                  0x003714                  _MatrixSubtract
                  0x003762                  _MatrixTranspose
                  0x003b1a                  _OpenSPI2
                  0x00ee8e                  _PageErase
                  0x00577e                  _PopulateEntries
                  0x0065e0                  _ReadByte
                  0x006626                  _ReadDWord
                  0x0072f8                  _ReadFAT
                  0x00ef4e                  _ReadPage
                  0x00ef9a                  _ReadSector
                  0x0065f2                  _ReadWord
                  0x00429f                  _RootDirectory0
                  0x011f9a                  _SP_current
                  0x011f96                  _SP_limit
                  0x011f92                  _SP_start
                  0x010096                  _SetAofA
                  0x006f60                  _ValidateChars
                  0x0037aa                  _VectorAdd
                  0x0037e8                  _VectorConvolve
                  0x0038e0                  _VectorCopy
                  0x0038f0                  _VectorCorrelate
                  0x00b1ac                  _VectorCross
                  0x003920                  _VectorDotProduct
                  0x00395a                  _VectorMax
                  0x003974                  _VectorMin
                  0x00398e                  _VectorMultiply
                  0x0039ca                  _VectorNegate
                  0x003a0a                  _VectorPower
                  0x003a42                  _VectorScale
                  0x003a7e                  _VectorSubtract
                  0x003aca                  _VectorZeroPad
                  0x0076ea                  _WriteFAT
                  0x00efee                  _WritePage
                  0x00f038                  _WriteSector
                  0x0051fc                  _Write_File_Entry
                  0x011940                  __AddressError
                  0x000558                  __Assert
                  0x0013ca                  __Atexit
                  0x010820                  __C1Interrupt
                  0x0107b4                  __C2Interrupt
                  0x000740                  __Closreg
                  0x00fd06                  __DMA0Interrupt
                  0x0119b2                  __DMACError
                  0x000b0e                  __DNKfflush
                  0x000390                  __DefaultInterrupt
                  0x001c14                  __Dnorm
                  0x001534                  __FDnorm
                  0x0010fa                  __FDscale
                  0x0011da                  __FDtento
                  0x00158a                  __FDunscale
                  0xf80004                  __FGS.sec
                  0x0015d6                  __Feraise
                  0x0012d6                  __Fofind
                  0x00182e                  __Fopen
                  0x001314                  __Foprep
                  0x00144c                  __Fwprep
                  0x001b74                  __Getmem
                  0x00dc7e                  __IC1Interrupt
                  0x00dcca                  __IC2Interrupt
                  0x00dd16                  __IC3Interrupt
                  0x00dd62                  __IC4Interrupt
                  0x00ddae                  __IC5Interrupt
                  0x00ddfa                  __IC6Interrupt
                  0x00de46                  __IC7Interrupt
                  0x00de92                  __IC8Interrupt
                  0x01146a                  __INT3Interrupt
                  0x001b82                  __LDunscale
                  0x001862                  __Litob
                  0x00e5e4                  __MI2C1Interrupt
                  0x00d810                  __MI2C2Interrupt
                  0x01198c                  __MathError
                  0x011914                  __OscillatorFail
                  0x0015f6                  __Puttxt
                  0x010d00                  __SPI2Interrupt
                  0x00051a                  __Setjmp
                  0x011966                  __StackError
                  0x00063a                  __Stof
                  0x000d4c                  __Stoflt
                  0x000c42                  __Stopfx
                  0x00089a                  __Stoul
                  0x000f10                  __Stoxflt
                  0x011032                  __T1Interrupt
                  0x010ea0                  __T4Interrupt
                  0x01105a                  __T5Interrupt
                  0x011078                  __T6Interrupt
                  0x0110b4                  __T7Interrupt
                  0x00f546                  __U1RXInterrupt
                  0x00f506                  __U1TXInterrupt
                  0x00f6a4                  __U2RXInterrupt
                  0x00f664                  __U2TXInterrupt
                  0x0015ec                  __Vacopy
                  0x002424                  ___Genld_cdfFnopsuxX
                  0x002424                  ___Genld_cdfFnopuxX
                  0x002424                  ___Genld_fF
                  0x0021de                  ___Ldtob_cdfFnopsuxX
                  0x0021de                  ___Ldtob_cdfFnopuxX
                  0x0021de                  ___Ldtob_fF
                  0x00206c                  ___Printf_cdfFnopsuxX
                  0x00206c                  ___Printf_cdfFnopuxX
                  0x00206c                  ___Printf_cdnopsuxX
                  0x00206c                  ___Printf_cdnopuxX
                  0x00206c                  ___Printf_fF
                  0x00206c                  ___Printf_s
                  0x001d70                  ___Putfld_cdfFnopsuxX
                  0x001d70                  ___Putfld_cdfFnopuxX
                  0x001d70                  ___Putfld_cdnopsuxX
                  0x001d70                  ___Putfld_cdnopuxX
                  0x001d70                  ___Putfld_fF
                  0x001d70                  ___Putfld_s
                  0x003498                  ___adddf3
                  0x002734                  ___addsf3
                  0x000232                  ___delay32
                  0x003184                  ___divdf3
                  0x002c22                  ___divdi3
                  0x0027ee                  ___divsf3
                  0x0028a8                  ___divsi3
                  0x003090                  ___eqdf2
                  0x002e98                  ___eqsf2
                  0x003052                  ___extendsfdf2
                  0x003238                  ___fixdfsi
                  0x002632                  ___fixsfsi
                  0x002872                  ___fixunssfsi
                  0x00342a                  ___floatdidf
                  0x003290                  ___floatsidf
                  0x0026dc                  ___floatsisf
                  0x00329a                  ___gedf2
                  0x0028c6                  ___gesf2
                  0x00329a                  ___gtdf2
                  0x0028c6                  ___gtsf2
                  0x003090                  ___ledf2
                  0x002e98                  ___lesf2
                  0x003090                  ___ltdf2
                  0x002e98                  ___ltsf2
                  0x002c5c                  ___moddi3
                  0x0028ca                  ___modsi3
                  0x00309a                  ___muldf3
                  0x0032a4                  ___muldi3
                  0x001d64                  ___mulp32eds3
                  0x001d64                  ___mulp32peds3
                  0x002674                  ___mulsf3
                  0x001d64                  ___mulsi3
                  0x003296                  ___subdf3
                  0x002732                  ___subsf3
                  0x002c0c                  ___udivdi3
                  0x002b3e                  ___udivmoddi3
                  0x002d2e                  ___udivsi3
                  0x002c1a                  ___umoddi3
                  0x002e2a                  ___umodsi3
                  0x003592                  ___umuldi3
                  0x0035fa                  __dPropagateNaN
                  0x00024e                  __data_init
                  0x00024e                  __data_init_standard
                  0x003300                  __dcompare
                  0x003384                  __dpack
                  0x003374                  __dreturnNaN
                  0x0035d6                  __dtype
                  0x0033dc                  __dunpack
                  0x003352                  __dunpack2
                  0x00337a                  __dunpack2exit
                  0x002d88                  __fPropagateNaN
                  0x002d9a                  __fbopExit
                  0x002da2                  __fbopReturnNaN
                  0x002e30                  __fchop
                  0x002df4                  __fcompare
                  0x002da8                  __fpack
                  0x002e7e                  __frexpf
                  0x002d4e                  __funpack
                  0x002d78                  __funpack2
                  0x0009ea                  __printf_0
                  0x0009ea                  __printf_cdnopsuxX
                  0x0009ea                  __printf_cdnopuxX
                  0x0009ea                  __printf_s
                  0x000222                  __psv_init
                  0x000200                  __resetPRI
                  0x000a14                  __sprintf_cdfFnopuxX
                  0x000a14                  __sprintf_cdnopuxX
                  0x000a14                  __sprintf_fF
                  0x00c550                  _add_waypoint
                  0x011ea4                  _altimeter_calibrate
                  0x00b976                  _altitudeCntrl
                  0x00aaa2                  _arcsine
                  0x00417e                  _bin_mode
                  0x00ef16                  _block
                  0x011b94                  _calc_indicated_airspeed
                  0x011bee                  _calc_true_airspeed
                  0x011bc0                  _calc_true_airspeed_from_indicated
                  0x01209e                  _calculate_analog_sensor_values
                  0x0120b2                  _calculate_sonar_height_above_ground
                  0x00e49c                  _calculate_time_of_week
                  0x00e39e                  _calculate_week_num
                  0x011d66                  _cam_pitchServoLimit
                  0x011d90                  _cam_yawServoLimit
                  0x011df0                  _cameraCntrl
                  0x010406                  _cameraServoMix
                  0x011130                  _canStabilizeHover
                  0x011128                  _canStabilizeInverted
                  0x00c546                  _clear_flightplan
                  0x011dd2                  _compute_camera_view
                  0x00aa3a                  _config_init
                  0x00a9f6                  _config_load
                  0x00aa1e                  _config_save
                  0x00ab4a                  _cosine
                  0x010f94                  _cpu_load_calc
                  0x0045cc                  _days_in_month
                  0x0101c4                  _dcm_absolute_to_relative
                  0x010170                  _dcm_calibrate
                  0x00ca54                  _dcm_callback_gps_location_updated
                  0x011df6                  _dcm_enable_yaw_drift_correction
                  0x0118e4                  _dcm_heartbeat_callback
                  0x0100aa                  _dcm_init
                  0x00b26e                  _dcm_init_rmat
                  0x010222                  _dcm_rel2abs
                  0x00b86a                  _dcm_run_imu_step
                  0x010184                  _dcm_set_origin_location
                  0x00f98c                  _dead_reckon
                  0x001cac                  _div
                  0x01060e                  _eeprom_ByteRead
                  0x0105ae                  _eeprom_ByteWrite
                  0x0105d2                  _eeprom_PageWrite
                  0x010642                  _eeprom_SequentialRead
                  0x00eeec                  _eeprom_service
                  0x00f07c                  _eeprom_test_read
                  0x00f0f6                  _eeprom_test_write
                  0x011efe                  _estAltitude
                  0x0108f8                  _estLocation
                  0x00eba8                  _estWind
                  0x011e1c                  _estYawDrift
                  0x000c0e                  _exit
                  0x002f8e                  _expf
                  0x000754                  _fclose
                  0x011c72                  _filesys_cat
                  0x011c2a                  _filesys_chkdsk
                  0x011c36                  _filesys_dir
                  0x011cb2                  _filesys_format
                  0x011cc6                  _filesys_init
                  0x00b120                  _find_first_bit_int16
                  0x00b150                  _find_first_bit_int32
                  0x01172c                  _flight_mode_switch_2pos_poll
                  0x011732                  _flight_mode_switch_check_set
                  0x011702                  _flight_mode_switch_manual
                  0x011710                  _flight_mode_switch_stabilize
                  0x01171e                  _flight_mode_switch_waypoints
                  0x01135c                  _flight_state_8hz
                  0x011660                  _flightplan_begin
                  0x011696                  _flightplan_index_get
                  0x011652                  _flightplan_init
                  0x0116b4                  _flightplan_live_begin
                  0x0116ea                  _flightplan_live_commit
                  0x0116cc                  _flightplan_live_received_byte
                  0x009180                  _flightplan_logo_begin
                  0x009172                  _flightplan_logo_index_get
                  0x00917a                  _flightplan_logo_init
                  0x00a08e                  _flightplan_logo_live_begin
                  0x00a152                  _flightplan_logo_live_commit
                  0x00a0a2                  _flightplan_logo_live_received_byte
                  0x0092f0                  _flightplan_logo_update
                  0x01167e                  _flightplan_update
                  0x00c588                  _flightplan_waypoints_begin
                  0x00c574                  _flightplan_waypoints_index_get
                  0x00c57c                  _flightplan_waypoints_init
                  0x00c8b2                  _flightplan_waypoints_live_begin
                  0x00c8fc                  _flightplan_waypoints_live_commit
                  0x00c8be                  _flightplan_waypoints_live_received_byte
                  0x00c7d6                  _flightplan_waypoints_update
                  0x006a8a                  _flushData
                  0x00072a                  _fopen
                  0x000ac2                  _fputc
                  0x000a36                  _fputs
                  0x0013e4                  _free
                  0x0007f0                  _fwrite
                  0x011fca                  _gentrap
                  0x011f9e                  _getErrLoc
                  0x00c5ec                  _getWaypoint3D
                  0x011b6c                  _get_air_density
                  0x011e9a                  _get_barometer_agl_altitude
                  0x011e90                  _get_barometer_altitude
                  0x011e86                  _get_barometer_pressure
                  0x011e7e                  _get_barometer_temperature
                  0x0115ee                  _get_fixed_origin
                  0x011fd2                  _get_geo_heading_angle
                  0x00e24c                  _get_gps_date
                  0x00e256                  _get_gps_time
                  0x0114c0                  _get_reset_flags
                  0x010bea                  _gps_commit_data
                  0x00e260                  _gps_init
                  0x00e2ea                  _gps_nav_capable_check_set
                  0x010a6c                  _gps_nav_valid
                  0x00e392                  _gps_parse_common
                  0x010a82                  _gps_startup_sequence
                  0x010c30                  _gps_update_basic_data
                  0x00e272                  _gpsoutbin
                  0x00e290                  _gpsoutline
                  0x011a0e                  _heartbeat
                  0x0119d8                  _heartbeat_chk
                  0x011a06                  _heartbeat_cnt
                  0x00bfac                  _helicalTurnCntrl
                  0x00f3a8                  _hoverRollCntrl
                  0x00eb34                  _hoverYawCntrl
                  0x011258                  _inflight_state
                  0x0087c0                  _ini_browse
                  0x008676                  _ini_getbool
                  0x008634                  _ini_getf
                  0x008758                  _ini_getkey
                  0x0085c2                  _ini_getl
                  0x008554                  _ini_gets
                  0x0086f2                  _ini_getsection
                  0x009146                  _ini_putf
                  0x009124                  _ini_putl
                  0x008c00                  _ini_puts
                  0x010c44                  _initMPUSPI_master16
                  0x01200e                  _init_airspeedCntrl
                  0x00b886                  _init_altitudeCntrl
                  0x0120ac                  _init_altitudeCntrlVariable
                  0x012098                  _init_analogs
                  0x0110f0                  _init_behavior
                  0x01074e                  _init_events
                  0x010c3e                  _init_gps_std
                  0x00c938                  _init_navigation
                  0x00f6e4                  _init_pitchCntrl
                  0x00f15c                  _init_rollCntrl
                  0x00d2f2                  _init_states
                  0x0120be                  _init_uart
                  0x00e8b4                  _init_yawCntrl
                  0x004454                  _instructions
                  0x001518                  _isalnum
                  0x000c32                  _isspace
                  0x002e9c                  _ldexpf
                  0x001bda                  _ldiv
                  0x00ffcc                  _log_close
                  0x00ff0c                  _log_swapbuf
                  0x00fee2                  _log_telemetry
                  0x002ee0                  _logf
                  0x00b090                  _long_scale
                  0x000536                  _longjmp
                  0x011f40                  _main
                  0x00178a                  _malloc
                  0x011f04                  _matrixpilot_init
                  0x011f34                  _matrixpilot_loop
                  0x012088                  _mavlink_callback_get_byte_to_send
                  0x012090                  _mavlink_callback_received_byte
                  0x012082                  _mavlink_init
                  0x0115c0                  _mcu_init
                  0x0014d2                  _memchr
                  0x0012c8                  _memcpy
                  0x0009c2                  _memset
                  0x00419a                  _mode
                  0x0041a4                  _mode_length
                  0x0120a4                  _mp_osd_run_step
                  0x0041a6                  _msg41parse
                  0x00cc6a                  _navigate_compute_bearing_to_goal
                  0x00cb50                  _navigate_desired_height
                  0x00cd02                  _navigate_determine_deflection
                  0x00c918                  _navigate_get_goal
                  0x00cae4                  _navigate_process_flightplan
                  0x00ca6a                  _navigate_set_goal
                  0x00cad8                  _navigate_set_goal_height
                  0x00f302                  _normalRollCntrl
                  0x00ea52                  _normalYawCntrl
                  0x0120b8                  _osd_init
                  0x00f81e                  _pitchCntrl
                  0x0045c0                  _pitch_offset_centred_pwm
                  0x0045ba                  _pitch_servo_high_ratio
                  0x0045c4                  _pitch_servo_pwm_max
                  0x0045c6                  _pitch_servo_pwm_min
                  0x002952                  _powf
                  0x000500                  _puts
                  0x00dc06                  _radioIn_failsafe_check
                  0x00dc40                  _radioIn_failsafe_reset
                  0x00db40                  _radioIn_init
                  0x000b88                  _raise
                  0x010cc8                  _readMPUSPI_burst16n
                  0x010dbe                  _readMPUSPIreg16
                  0x00acaa                  _rect_to_polar
                  0x00ad66                  _rect_to_polar16
                  0x0106a2                  _register_event
                  0x0106b0                  _register_event_p
                  0x0118fa                  _restart
                  0x00f2e8                  _rollCntrl
                  0x00ac40                  _rotate_2D
                  0x00abc6                  _rotate_2D_long_vector_by_vector
                  0x00ac24                  _rotate_2D_vector_by_angle
                  0x00ab58                  _rotate_2D_vector_by_vector
                  0x004480                  _rtlInstructions
                  0x0044be                  _rtlWaypoints
                  0x012038                  _save_airspeedCntrl
                  0x00b908                  _save_altitudeCntrl
                  0x00c996                  _save_navigation
                  0x00f75c                  _save_pitchCntrl
                  0x00f1f6                  _save_rollCntrl
                  0x00e946                  _save_yawCntrl
                  0x0102d2                  _servoMix
                  0x0102a8                  _servoMix_init
                  0x010df8                  _servoOut_init
                  0x0117fe                  _servoPrepare_init
                  0x011102                  _setBehavior
                  0x00b9e6                  _setTargetAltitude
                  0x011dba                  _set_camera_view
                  0x00c64c                  _set_waypoint
                  0x011fb4                  _setjmp
                  0x0014fc                  _signal
                  0x00aa42                  _sine
                  0x0043d2                  _sintab
                  0x00ae3c                  _sqrt_int
                  0x00aea4                  _sqrt_long
                  0x0028e8                  _sqrtf
                  0x010e8a                  _start_pwm_outputs
                  0x0004ee                  _strchr
                  0x0006e4                  _strcmp
                  0x00058c                  _strlen
                  0x000708                  _strncpy
                  0x007f3c                  _strnicmp
                  0x0014e6                  _strrchr
                  0x0005a8                  _strtol
                  0x0045be                  _tan_pitch_in_stabilized_mode
                  0x01205a                  _telemetry_init
                  0x010066                  _telemetry_log
                  0x012054                  _telemetry_output_8hz
                  0x01204e                  _telemetry_restart
                  0x0009fa                  _tolower
                  0x00059a                  _toupper
                  0x010700                  _trigger_event
                  0x012060                  _udb_a2d_record_offsets
                  0x0110e2                  _udb_background_trigger
                  0x0110a6                  _udb_background_trigger_pulse
                  0x00d314                  _udb_callback_radio_did_turn_off
                  0x00b274                  _udb_callback_read_sensors
                  0x010f82                  _udb_cpu_load
                  0x0104a8                  _udb_eeprom_init
                  0x00e2a8                  _udb_gps_callback_get_byte_to_send
                  0x00e2dc                  _udb_gps_callback_received_byte
                  0x00f4c4                  _udb_gps_check_rate
                  0x00f49a                  _udb_gps_set_rate
                  0x00f4fe                  _udb_gps_start_sending_data
                  0x00d320                  _udb_heartbeat_40hz_callback
                  0x0100fc                  _udb_heartbeat_callback
                  0x011f52                  _udb_init
                  0x00fc2c                  _udb_init_ADC
                  0x00f428                  _udb_init_GPS
                  0x00f586                  _udb_init_USART
                  0x010fa6                  _udb_init_clock
                  0x011f8a                  _udb_run
                  0x01203e                  _udb_serial_callback_get_byte_to_send
                  0x012046                  _udb_serial_callback_received_byte
                  0x00f622                  _udb_serial_check_rate
                  0x00f5f8                  _udb_serial_set_rate
                  0x00f65c                  _udb_serial_start_sending_data
                  0x010e44                  _udb_servo_pulsesat
                  0x00db18                  _udb_servo_record_trims
                  0x010e6e                  _udb_set_action_state
                  0x011138                  _updateBehavior
                  0x0111fe                  _updateTriggerAction
                  0x0115e6                  _use_fixed_origin
                  0x00e122                  _vect2_16_mag
                  0x00e180                  _vect2_16_norm
                  0x00df9a                  _vect2_16phi_rotate
                  0x00dee0                  _vect2_16x16_rotate
                  0x00df40                  _vect2_32x16_rotate
                  0x00dfba                  _vect2_polar
                  0x00e060                  _vect2_polar_16
                  0x00e14a                  _vect3_16_mag
                  0x00e1d6                  _vect3_16_norm
                  0x00af5c                  _vector2_mag
                  0x00afa8                  _vector2_normalize
                  0x00af7c                  _vector3_mag
                  0x00b008                  _vector3_normalize
                  0x00c40e                  _waypoint_count
                  0x0044a8                  _waypoints
                  0x00ccfa                  _wind_gain_adjustment
                  0x0044d4                  _wp_inject_byte_order
                  0x010c8c                  _writeMPUSPIreg16
                  0x00ea38                  _yawCntrl
                  0x00b25c                  _yaw_drift_reset
                  0x0045c2                  _yaw_offset_centred_pwm
                  0x0045bc                  _yaw_servo_high_ratio
                  0x0045c8                  _yaw_servo_pwm_max
                  0x0045ca                  _yaw_servo_pwm_min
                  0x00ee96                  build\UDB5\EEPROM.o:_MCP24LC256_callback
                  0x00e87e                  build\UDB5\I2C1.o:_I2C1_doneRead
                  0x00e7dc                  build\UDB5\I2C1.o:_I2C1_doneWrite
                  0x00e878                  build\UDB5\I2C1.o:_I2C1_idle
                  0x00e804                  build\UDB5\I2C1.o:_I2C1_readAddress
                  0x00e7f4                  build\UDB5\I2C1.o:_I2C1_readStart
                  0x00e818                  build\UDB5\I2C1.o:_I2C1_recen
                  0x00e83e                  build\UDB5\I2C1.o:_I2C1_recstore
                  0x00e832                  build\UDB5\I2C1.o:_I2C1_rerecen
                  0x00e720                  build\UDB5\I2C1.o:_I2C1_startWrite
                  0x00e86c                  build\UDB5\I2C1.o:_I2C1_stopRead
                  0x00e730                  build\UDB5\I2C1.o:_I2C1_writeAddress
                  0x00e746                  build\UDB5\I2C1.o:_I2C1_writeCommandData
                  0x00e792                  build\UDB5\I2C1.o:_I2C1_writeData
                  0x00e7d0                  build\UDB5\I2C1.o:_I2C1_writeStop
                  0x00e5ce                  build\UDB5\I2C1.o:_serviceI2C1
                  0x00dae2                  build\UDB5\I2C2.o:_isr_doneRead
                  0x00da24                  build\UDB5\I2C2.o:_isr_doneWrite
                  0x00dadc                  build\UDB5\I2C2.o:_isr_idle
                  0x00da4c                  build\UDB5\I2C2.o:_isr_readAddress
                  0x00da3c                  build\UDB5\I2C2.o:_isr_readStart
                  0x00da7c                  build\UDB5\I2C2.o:_isr_recen
                  0x00daa2                  build\UDB5\I2C2.o:_isr_recstore
                  0x00da96                  build\UDB5\I2C2.o:_isr_rerecen
                  0x00d95c                  build\UDB5\I2C2.o:_isr_startWrite
                  0x00dad0                  build\UDB5\I2C2.o:_isr_stopRead
                  0x00d978                  build\UDB5\I2C2.o:_isr_writeAddress
                  0x00d98e                  build\UDB5\I2C2.o:_isr_writeCommandData
                  0x00d9da                  build\UDB5\I2C2.o:_isr_writeData
                  0x00da18                  build\UDB5\I2C2.o:_isr_writeStop
                  0x00d7fa                  build\UDB5\I2C2.o:_serviceI2C2
                  0x00e324                  build\UDB5\gpsParseCommon.o:_gps_parse_common_callback
                  0x010ad8                  build\UDB5\gpsParseSTD.o:_msg_A0
                  0x010af4                  build\UDB5\gpsParseSTD.o:_msg_A2
                  0x010bba                  build\UDB5\gpsParseSTD.o:_msg_B0
                  0x010ac6                  build\UDB5\gpsParseSTD.o:_msg_B3
                  0x010b50                  build\UDB5\gpsParseSTD.o:_msg_MSG41
                  0x010b94                  build\UDB5\gpsParseSTD.o:_msg_MSGU
                  0x010b04                  build\UDB5\gpsParseSTD.o:_msg_PL1
                  0x010b1a                  build\UDB5\gpsParseSTD.o:_msg_PL2
                  0x011a62                  build\UDB5\heartbeat.o:_heartbeat_pulse
                  0x011420                  build\UDB5\mpu6000.o:_process_MPU_data
                  0x010cc2                  build\UDB5\mpu_spi.o:_no_call_back
                  0x00d5d6                  build\UDB5\states.o:_acquiringS
                  0x00d596                  build\UDB5\states.o:_calibrateS
                  0x00d644                  build\UDB5\states.o:_manualS
                  0x00d710                  build\UDB5\states.o:_returnS
                  0x00d688                  build\UDB5\states.o:_stabilizedS
                  0x00d58e                  build\UDB5\states.o:_startS
                  0x00d6c8                  build\UDB5\states.o:_waypointS
                  0x0007d8                  fclose.XXo:_closeall
                  0x0009d0                  printf_cdnopsuxX.XXo:_prout
                  0x000a08                  sprintf_cdfFnopuxX.XXo:_prout

Memory Configuration

Name             Origin             Length             Attributes
data             0x000800           0x007800           a !xr
reset            0x000000           0x000004  
ivt              0x000004           0x0000fc  
_reserved        0x000100           0x000004  
aivt             0x000104           0x0000fc  
program          0x000200           0x02a9fe           xr
FBS              0xf80000           0x000002  
FSS              0xf80002           0x000002  
FGS              0xf80004           0x000002  
FOSCSEL          0xf80006           0x000002  
FOSC             0xf80008           0x000002  
FWDT             0xf8000a           0x000002  
FPOR             0xf8000c           0x000002  
FICD             0xf8000e           0x000002  
FUID0            0xf80010           0x000002  
FUID1            0xf80012           0x000002  
FUID2            0xf80014           0x000002  
FUID3            0xf80016           0x000002  
*default*        0x000000           0xffffffff  

Linker script and memory map

LOAD build\UDB5\airspeedCntrl.o
LOAD build\UDB5\altitudeCntrl.o
LOAD build\UDB5\altitudeCntrlVariable.o
LOAD build\UDB5\behavior.o
LOAD build\UDB5\cameraCntrl.o
LOAD build\UDB5\config.o
LOAD build\UDB5\config_tests.o
LOAD build\UDB5\console.o
LOAD build\UDB5\data_services.o
LOAD build\UDB5\data_storage.o
LOAD build\UDB5\euler_angles.o
LOAD build\UDB5\flightplan-logo.o
LOAD build\UDB5\flightplan-waypoints.o
LOAD build\UDB5\flightplan.o
LOAD build\UDB5\flight_state.o
LOAD build\UDB5\fly_by_datalink.o
LOAD build\UDB5\helicalTurnCntrl.o
LOAD build\UDB5\main.o
LOAD build\UDB5\MAVFlexiFunctions.o
LOAD build\UDB5\MAVLink.o
LOAD build\UDB5\MAVMission.o
LOAD build\UDB5\MAVParams.o
LOAD build\UDB5\MAVUDBExtra.o
LOAD build\UDB5\minim_osd.o
LOAD build\UDB5\minIni.o
LOAD build\UDB5\mode_switch.o
LOAD build\UDB5\mp_osd.o
LOAD build\UDB5\navigate.o
LOAD build\UDB5\nv_memory_table.o
LOAD build\UDB5\parameter_table.o
LOAD build\UDB5\parameter_table2.o
LOAD build\UDB5\parameter_table_init.o
LOAD build\UDB5\pitchCntrl.o
LOAD build\UDB5\preflight.o
LOAD build\UDB5\redef.o
LOAD build\UDB5\remzibi_osd.o
LOAD build\UDB5\ring_buffer.o
LOAD build\UDB5\rollCntrl.o
LOAD build\UDB5\servoMix.o
LOAD build\UDB5\servoPrepare.o
LOAD build\UDB5\sonarCntrl.o
LOAD build\UDB5\states.o
LOAD build\UDB5\telemetry.o
LOAD build\UDB5\telemetry_log.o
LOAD build\UDB5\yawCntrl.o
LOAD build\UDB5\MAVFTP.o
LOAD build\UDB5\bittest.o
LOAD build\UDB5\deadReckoning.o
LOAD build\UDB5\estAirspeed.o
LOAD build\UDB5\estAltitude.o
LOAD build\UDB5\estLocation.o
LOAD build\UDB5\estWind.o
LOAD build\UDB5\estYawDrift.o
LOAD build\UDB5\gpsData.o
LOAD build\UDB5\gpsParseCommon.o
LOAD build\UDB5\gpsParseMTEK.o
LOAD build\UDB5\gpsParseNMEA.o
LOAD build\UDB5\gpsParseSTD.o
LOAD build\UDB5\gpsParseUBX.o
LOAD build\UDB5\hilsim.o
LOAD build\UDB5\libDCM.o
LOAD build\UDB5\mathlib.o
LOAD build\UDB5\mathlibNAV.o
LOAD build\UDB5\rmat.o
LOAD build\UDB5\24LC256.o
LOAD build\UDB5\ADchannel.o
LOAD build\UDB5\analog2digital_auav3.o
LOAD build\UDB5\analog2digital_udb4.o
LOAD build\UDB5\analog2digital_udb5.o
LOAD build\UDB5\analogs.o
LOAD build\UDB5\background.o
LOAD build\UDB5\barometer.o
LOAD build\UDB5\eeprom_udb4.o
LOAD build\UDB5\events.o
LOAD build\UDB5\heartbeat.o
LOAD build\UDB5\I2C1.o
LOAD build\UDB5\I2C2.o
LOAD build\UDB5\libUDB.o
LOAD build\UDB5\magnetometer.o
LOAD build\UDB5\mcu.o
LOAD build\UDB5\mpu6000.o
LOAD build\UDB5\mpu_spi.o
LOAD build\UDB5\osd.o
LOAD build\UDB5\osd_bit.o
LOAD build\UDB5\osd_spi.o
LOAD build\UDB5\radioIn.o
LOAD build\UDB5\read.o
LOAD build\UDB5\serialIO.o
LOAD build\UDB5\servoOut.o
LOAD build\UDB5\sonarIn.o
LOAD build\UDB5\traps.o
LOAD build\UDB5\uart.o
LOAD build\UDB5\write.o
LOAD build\UDB5\AT45D.o
LOAD build\UDB5\AT45D_DMA.o
LOAD build\UDB5\AT45D_FS.o
LOAD build\UDB5\EEPROM.o
LOAD build\UDB5\EEPROM_FS.o
LOAD build\UDB5\filesys.o
LOAD build\UDB5\MDD_AT45D.o
LOAD build\UDB5\MDD_EEPROM.o
LOAD build\UDB5\usb.o
LOAD build\UDB5\usb_cdc.o
LOAD build\UDB5\usb_descriptors.o
LOAD build\UDB5\usb_msd.o
LOAD build\UDB5\FSIO.o
LOAD build\UDB5\SD-SPI.o
LOAD build\UDB5\usb_device.o
LOAD build\UDB5\usb_hal_dspic33e.o
LOAD build\UDB5\usb_function_cdc.o
LOAD build\UDB5\usb_function_msd.o
LOAD build\UDB5\stack.o
LOAD build\UDB5\fbcl.o
LOAD build\UDB5\traps_asm.o
LOAD build\UDB5\madd.o
LOAD build\UDB5\mmul.o
LOAD build\UDB5\mscl.o
LOAD build\UDB5\msub.o
LOAD build\UDB5\mtrp.o
LOAD build\UDB5\vadd.o
LOAD build\UDB5\vcon.o
LOAD build\UDB5\vcopy.o
LOAD build\UDB5\vcor.o
LOAD build\UDB5\vdot.o
LOAD build\UDB5\vmax.o
LOAD build\UDB5\vmin.o
LOAD build\UDB5\vmul.o
LOAD build\UDB5\vneg.o
LOAD build\UDB5\vpow.o
LOAD build\UDB5\vscl.o
LOAD build\UDB5\vsub.o
LOAD build\UDB5\vzpad.o
LOAD c:/program files (x86)/microchip/mplab c30/bin/bin/../../lib/dsPIC33F\libp33FJ256GP710A-coff.a
                    0xf80000                  __FBS = 0xf80000
                    0xf80002                  __FSS = 0xf80002
                    0xf80004                  __FGS = 0xf80004
                    0xf80006                  __FOSCSEL = 0xf80006
                    0xf80008                  __FOSC = 0xf80008
                    0xf8000a                  __FWDT = 0xf8000a
                    0xf8000c                  __FPOR = 0xf8000c
                    0xf8000e                  __FICD = 0xf8000e
                    0xf80010                  __FUID0 = 0xf80010
                    0xf80012                  __FUID1 = 0xf80012
                    0xf80014                  __FUID2 = 0xf80014
                    0xf80016                  __FUID3 = 0xf80016
                    0x0004                  __IVT_BASE = 0x4
                    0x0104                  __AIVT_BASE = 0x104
                    0x0800                  __DATA_BASE = 0x800
                    0x7800                  __DATA_LENGTH = 0x7800
                    0x4800                  __YDATA_BASE = 0x4800
                    0x7800                  __DMA_BASE = 0x7800
                    0x7fff                  __DMA_END = 0x7fff
                    0x0200                  __CODE_BASE = 0x200
                    0x2aa00                  __CODE_LENGTH = 0x2aa00

.reset            0x000000          0x4
                  0x000000          0x2 SHORT 0x200 ABSOLUTE (__reset)
                  0x000001          0x2 SHORT 0x4
                  0x000002          0x2 SHORT 0x0 ((ABSOLUTE (__reset) >> 0x10) & 0x7f)
                  0x000003          0x2 SHORT 0x0

.text             0x000200       0x3922
 *(.init)
 .init            0x000200         0x32 c:/program files (x86)/microchip/mplab c30/bin/bin/../../lib\liblega-pic30-coff.a(crt0_standard.o)
                  0x000200                  _resetPRI
                  0x000200                  _reset
                  0x000222                  _psv_init
 .init            0x000232         0x1c c:/program files (x86)/microchip/mplab c30/bin/bin/../../lib\liblega-pic30-coff.a(delay32.Lo)
                  0x000232                  __delay32
 .init            0x00024e         0x5e c:/program files (x86)/microchip/mplab c30/bin/bin/../../lib\liblega-pic30-coff.a(data_init_standard.o)
                  0x00024e                  _data_init_standard
                  0x00024e                  _data_init
 *(.user_init)
 *(.handle)
 .handle          0x0002ac         0xe4 jump_table
 *(.isr*)
 .isr             0x000390          0x4 default_isr
                  0x000390                  _DefaultInterrupt
 *(.libc)
 .libc            0x000394         0xa0 build\UDB5\read.o
                  0x000394                  read
 .libc            0x000434         0xba build\UDB5\write.o
                  0x000434                  write
 .libc            0x0004ee         0x12 c:/program files (x86)/microchip/mplab c30/bin/bin/../../lib\liblega-c-coff.a(strchr.XXo)
                  0x0004ee                  strchr
 .libc            0x000500         0x1a c:/program files (x86)/microchip/mplab c30/bin/bin/../../lib\liblega-c-coff.a(puts.XXo)
                  0x000500                  puts
 .libc            0x00051a         0x3e c:/program files (x86)/microchip/mplab c30/bin/bin/../../lib\liblega-c-coff.a(setjmp.XXo)
                  0x00051a                  _Setjmp
                  0x000536                  longjmp
 .libc            0x000558         0x34 c:/program files (x86)/microchip/mplab c30/bin/bin/../../lib\liblega-c-coff.a(xassert.XXo)
                  0x000558                  _Assert
 .libc            0x00058c          0xe c:/program files (x86)/microchip/mplab c30/bin/bin/../../lib\liblega-c-coff.a(strlen.XXo)
                  0x00058c                  strlen
 .libc            0x00059a          0xe c:/program files (x86)/microchip/mplab c30/bin/bin/../../lib\liblega-c-coff.a(toupper.XXo)
                  0x00059a                  toupper
 .libc            0x0005a8         0x92 c:/program files (x86)/microchip/mplab c30/bin/bin/../../lib\liblega-c-coff.a(strtol.XXo)
                  0x0005a8                  strtol
 .libc            0x00063a         0xaa c:/program files (x86)/microchip/mplab c30/bin/bin/../../lib\liblega-c-coff.a(xstod.XXo)
                  0x00063a                  _Stof
 .libc            0x0006e4         0x24 c:/program files (x86)/microchip/mplab c30/bin/bin/../../lib\liblega-c-coff.a(strcmp.XXo)
                  0x0006e4                  strcmp
 .libc            0x000708         0x22 c:/program files (x86)/microchip/mplab c30/bin/bin/../../lib\liblega-c-coff.a(strncpy.XXo)
                  0x000708                  strncpy
 .libc            0x00072a         0x16 c:/program files (x86)/microchip/mplab c30/bin/bin/../../lib\liblega-c-coff.a(fopen.XXo)
                  0x00072a                  fopen
 .libc            0x000740         0xb0 c:/program files (x86)/microchip/mplab c30/bin/bin/../../lib\liblega-c-coff.a(fclose.XXo)
                  0x000740                  _Closreg
                  0x000754                  fclose
                  0x0007d8                  fclose.XXo:_closeall
 .libc            0x0007f0         0xaa c:/program files (x86)/microchip/mplab c30/bin/bin/../../lib\liblega-c-coff.a(fwrite.XXo)
                  0x0007f0                  fwrite
 .libc            0x00089a        0x128 c:/program files (x86)/microchip/mplab c30/bin/bin/../../lib\liblega-c-coff.a(xstoul.XXo)
                  0x00089a                  _Stoul
 .libc            0x0009c2          0xe c:/program files (x86)/microchip/mplab c30/bin/bin/../../lib\liblega-c-coff.a(memset.XXo)
                  0x0009c2                  memset
 .libc            0x0009d0         0x2a c:/program files (x86)/microchip/mplab c30/bin/bin/../../lib\liblega-c-coff.a(printf_cdnopsuxX.XXo)
                  0x0009d0                  printf_cdnopsuxX.XXo:_prout
                  0x0009ea                  _printf_s
                  0x0009ea                  _printf_cdnopuxX
                  0x0009ea                  _printf_0
                  0x0009ea                  _printf_cdnopsuxX
 .libc            0x0009fa          0xe c:/program files (x86)/microchip/mplab c30/bin/bin/../../lib\liblega-c-coff.a(tolower.XXo)
                  0x0009fa                  tolower
 .libc            0x000a08         0x2e c:/program files (x86)/microchip/mplab c30/bin/bin/../../lib\liblega-c-coff.a(sprintf_cdfFnopuxX.XXo)
                  0x000a08                  sprintf_cdfFnopuxX.XXo:_prout
                  0x000a14                  _sprintf_cdnopuxX
                  0x000a14                  _sprintf_cdfFnopuxX
                  0x000a14                  _sprintf_fF
 .libc            0x000a36         0x8c c:/program files (x86)/microchip/mplab c30/bin/bin/../../lib\liblega-c-coff.a(fputs.XXo)
                  0x000a36                  fputs
 .libc            0x000ac2         0x4c c:/program files (x86)/microchip/mplab c30/bin/bin/../../lib\liblega-c-coff.a(fputc.XXo)
                  0x000ac2                  fputc
 .libc            0x000b0e         0x7a c:/program files (x86)/microchip/mplab c30/bin/bin/../../lib\liblega-c-coff.a(fflush.XXo)
                  0x000b0e                  _DNKfflush
 .libc            0x000b88         0x86 c:/program files (x86)/microchip/mplab c30/bin/bin/../../lib\liblega-c-coff.a(raise.XXo)
                  0x000b88                  raise
 .libc            0x000c0e         0x24 c:/program files (x86)/microchip/mplab c30/bin/bin/../../lib\liblega-c-coff.a(exit.XXo)
                  0x000c0e                  exit
 .libc            0x000c32         0x10 c:/program files (x86)/microchip/mplab c30/bin/bin/../../lib\liblega-c-coff.a(isspace.XXo)
                  0x000c32                  isspace
 .libc            0x000c42        0x10a c:/program files (x86)/microchip/mplab c30/bin/bin/../../lib\liblega-c-coff.a(xstopfx.XXo)
                  0x000c42                  _Stopfx
 .libc            0x000d4c        0x1c4 c:/program files (x86)/microchip/mplab c30/bin/bin/../../lib\liblega-c-coff.a(xstoflt.XXo)
                  0x000d4c                  _Stoflt
 .libc            0x000f10        0x1ea c:/program files (x86)/microchip/mplab c30/bin/bin/../../lib\liblega-c-coff.a(xstoxflt.XXo)
                  0x000f10                  _Stoxflt
 .libc            0x0010fa         0xb8 c:/program files (x86)/microchip/mplab c30/bin/bin/../../lib\liblega-c-coff.a(xfdscale.XXo)
                  0x0010fa                  _FDscale
 .libc            0x0011b2        0x116 c:/program files (x86)/microchip/mplab c30/bin/bin/../../lib\liblega-c-coff.a(xdtento.XXo)
                  0x0011da                  _FDtento
 .libc            0x0012c8          0xe c:/program files (x86)/microchip/mplab c30/bin/bin/../../lib\liblega-c-coff.a(memcpy.XXo)
                  0x0012c8                  memcpy
 .libc            0x0012d6         0x3e c:/program files (x86)/microchip/mplab c30/bin/bin/../../lib\liblega-c-coff.a(xfofind.XXo)
                  0x0012d6                  _Fofind
 .libc            0x001314         0xb6 c:/program files (x86)/microchip/mplab c30/bin/bin/../../lib\liblega-c-coff.a(xfoprep.XXo)
                  0x001314                  _Foprep
 .libc            0x0013ca         0x1a c:/program files (x86)/microchip/mplab c30/bin/bin/../../lib\liblega-c-coff.a(xatexit.XXo)
                  0x0013ca                  _Atexit
 .libc            0x0013e4         0x68 c:/program files (x86)/microchip/mplab c30/bin/bin/../../lib\liblega-c-coff.a(free.XXo)
                  0x0013e4                  free
 .libc            0x00144c         0x86 c:/program files (x86)/microchip/mplab c30/bin/bin/../../lib\liblega-c-coff.a(xfwprep.XXo)
                  0x00144c                  _Fwprep
 .libc            0x0014d2         0x14 c:/program files (x86)/microchip/mplab c30/bin/bin/../../lib\liblega-c-coff.a(memchr.XXo)
                  0x0014d2                  memchr
 .libc            0x0014e6         0x16 c:/program files (x86)/microchip/mplab c30/bin/bin/../../lib\liblega-c-coff.a(strrchr.XXo)
                  0x0014e6                  strrchr
 .libc            0x0014fc         0x1c c:/program files (x86)/microchip/mplab c30/bin/bin/../../lib\liblega-c-coff.a(signal.XXo)
                  0x0014fc                  signal
 .libc            0x001518         0x1c c:/program files (x86)/microchip/mplab c30/bin/bin/../../lib\liblega-c-coff.a(isalnum.XXo)
                  0x001518                  isalnum
 .libc            0x001534         0x56 c:/program files (x86)/microchip/mplab c30/bin/bin/../../lib\liblega-c-coff.a(xfdnorm.XXo)
                  0x001534                  _FDnorm
 .libc            0x00158a         0x4c c:/program files (x86)/microchip/mplab c30/bin/bin/../../lib\liblega-c-coff.a(xfdunsca.XXo)
                  0x00158a                  _FDunscale
 .libc            0x0015d6         0x16 c:/program files (x86)/microchip/mplab c30/bin/bin/../../lib\liblega-c-coff.a(xferaise.XXo)
                  0x0015d6                  _Feraise
 .libc            0x0015ec          0xa c:/program files (x86)/microchip/mplab c30/bin/bin/../../lib\liblega-c-coff.a(xvacopy.XXo)
                  0x0015ec                  _Vacopy
 .libc            0x0015f6        0x194 c:/program files (x86)/microchip/mplab c30/bin/bin/../../lib\liblega-c-coff.a(xputtxt.XXo)
                  0x0015f6                  _Puttxt
 .libc            0x00178a         0xa4 c:/program files (x86)/microchip/mplab c30/bin/bin/../../lib\liblega-c-coff.a(malloc.XXo)
                  0x00178a                  malloc
 .libc            0x00182e         0x34 c:/program files (x86)/microchip/mplab c30/bin/bin/../../lib\liblega-c-coff.a(xfopen.XXo)
                  0x00182e                  _Fopen
 .libc            0x001862        0x312 c:/program files (x86)/microchip/mplab c30/bin/bin/../../lib\liblega-c-coff.a(xlitob.XXo)
                  0x001862                  _Litob
 .libc            0x001b74          0xe c:/program files (x86)/microchip/mplab c30/bin/bin/../../lib\liblega-c-coff.a(xgetmem.XXo)
                  0x001b74                  _Getmem
 .libc            0x001b82         0x58 c:/program files (x86)/microchip/mplab c30/bin/bin/../../lib\liblega-c-coff.a(xldunsca.XXo)
                  0x001b82                  _LDunscale
 .libc            0x001bda         0x3a c:/program files (x86)/microchip/mplab c30/bin/bin/../../lib\liblega-c-coff.a(ldiv.XXo)
                  0x001bda                  ldiv
 .libc            0x001c14         0x98 c:/program files (x86)/microchip/mplab c30/bin/bin/../../lib\liblega-c-coff.a(xdnorm.XXo)
                  0x001c14                  _Dnorm
 .libc            0x001cac         0x16 c:/program files (x86)/microchip/mplab c30/bin/bin/../../lib\liblega-c-coff.a(div.XXo)
                  0x001cac                  div
 .libc            0x001cc2         0x12 c:/program files (x86)/microchip/mplab c30/bin/bin/../../lib\liblega-pic30-coff.a(close.Lo)
                  0x001cc2                  close
 .libc            0x001cd4         0x12 c:/program files (x86)/microchip/mplab c30/bin/bin/../../lib\liblega-pic30-coff.a(remove.Lo)
                  0x001cd4                  remove
 .libc            0x001ce6         0x10 c:/program files (x86)/microchip/mplab c30/bin/bin/../../lib\liblega-pic30-coff.a(_exit.Lo)
                  0x001ce6                  _exit
 .libc            0x001cf6         0x24 c:/program files (x86)/microchip/mplab c30/bin/bin/../../lib\liblega-pic30-coff.a(open.Lo)
                  0x001cf6                  open
 .libc            0x001d1a         0x2c c:/program files (x86)/microchip/mplab c30/bin/bin/../../lib\liblega-pic30-coff.a(sbrk.Lo)
                  0x001d1a                  sbrk
 .libc            0x001d46         0x1e c:/program files (x86)/microchip/mplab c30/bin/bin/../../lib\liblega-pic30-coff.a(brk.Lo)
                  0x001d46                  brk
 .libc            0x001d64          0xc c:/program files (x86)/microchip/mplab c30/bin/bin/../../lib\libm-coff.a(mulsi3.o)
                  0x001d64                  __mulp32peds3
                  0x001d64                  __mulsi3
                  0x001d64                  __mulp32eds3
 .libc            0x001d70        0x2fc c:/program files (x86)/microchip/mplab c30/bin/bin/../../lib\liblega-c-coff.a(xputfld_cdfFnopsuxX.XXo)
                  0x001d70                  __Putfld_fF
                  0x001d70                  __Putfld_cdnopuxX
                  0x001d70                  __Putfld_cdnopsuxX
                  0x001d70                  __Putfld_cdfFnopuxX
                  0x001d70                  __Putfld_cdfFnopsuxX
                  0x001d70                  __Putfld_s
 .libc            0x00206c        0x172 c:/program files (x86)/microchip/mplab c30/bin/bin/../../lib\liblega-c-coff.a(xprintf_cdfFnopsuxX.XXo)
                  0x00206c                  __Printf_fF
                  0x00206c                  __Printf_cdfFnopuxX
                  0x00206c                  __Printf_s
                  0x00206c                  __Printf_cdfFnopsuxX
                  0x00206c                  __Printf_cdnopuxX
                  0x00206c                  __Printf_cdnopsuxX
 .libc            0x0021de        0x246 c:/program files (x86)/microchip/mplab c30/bin/bin/../../lib\liblega-c-coff.a(xldtob_cdfFnopsuxX.XXo)
                  0x0021de                  __Ldtob_cdfFnopsuxX
                  0x0021de                  __Ldtob_fF
                  0x0021de                  __Ldtob_cdfFnopuxX
 .libc            0x002424        0x20e c:/program files (x86)/microchip/mplab c30/bin/bin/../../lib\liblega-c-coff.a(xgenld_cdfFnopsuxX.XXo)
                  0x002424                  __Genld_fF
                  0x002424                  __Genld_cdfFnopsuxX
                  0x002424                  __Genld_cdfFnopuxX
 *(.libm)
 .libm            0x002632         0x42 c:/program files (x86)/microchip/mplab c30/bin/bin/../../lib\libm-coff.a(fixsfsi.o)
                  0x002632                  __fixsfsi
 .libm            0x002674         0x68 c:/program files (x86)/microchip/mplab c30/bin/bin/../../lib\libm-coff.a(mulsf3.o)
                  0x002674                  __mulsf3
 .libm            0x0026dc         0x56 c:/program files (x86)/microchip/mplab c30/bin/bin/../../lib\libm-coff.a(floatsisf.o)
                  0x0026dc                  __floatsisf
 .libm            0x002732         0xbc c:/program files (x86)/microchip/mplab c30/bin/bin/../../lib\libm-coff.a(addsf3.o)
                  0x002732                  __subsf3
                  0x002734                  __addsf3
 .libm            0x0027ee         0x84 c:/program files (x86)/microchip/mplab c30/bin/bin/../../lib\libm-coff.a(divsf3.o)
                  0x0027ee                  __divsf3
 .libm            0x002872         0x36 c:/program files (x86)/microchip/mplab c30/bin/bin/../../lib\libm-coff.a(fixunssfsi.o)
                  0x002872                  __fixunssfsi
 .libm            0x0028a8         0x1e c:/program files (x86)/microchip/mplab c30/bin/bin/../../lib\libm-coff.a(divsi3.o)
                  0x0028a8                  __divsi3
 .libm            0x0028c6          0x4 c:/program files (x86)/microchip/mplab c30/bin/bin/../../lib\libm-coff.a(fgtge.o)
                  0x0028c6                  __gesf2
                  0x0028c6                  __gtsf2
 .libm            0x0028ca         0x1e c:/program files (x86)/microchip/mplab c30/bin/bin/../../lib\libm-coff.a(modsi3.o)
                  0x0028ca                  __modsi3
 .libm            0x0028e8         0x6a c:/program files (x86)/microchip/mplab c30/bin/bin/../../lib\libm-coff.a(sqrtf.o)
                  0x0028e8                  sqrtf
 .libm            0x002952        0x1c6 c:/program files (x86)/microchip/mplab c30/bin/bin/../../lib\libm-coff.a(powf.o)
                  0x002952                  powf
 .libm            0x002b18        0x216 c:/program files (x86)/microchip/mplab c30/bin/bin/../../lib\libm-coff.a(divmoddi3.o)
                  0x002b3e                  __udivmoddi3
                  0x002c0c                  __udivdi3
                  0x002c1a                  __umoddi3
                  0x002c22                  __divdi3
                  0x002c5c                  __moddi3
 .libm            0x002d2e         0x20 c:/program files (x86)/microchip/mplab c30/bin/bin/../../lib\libm-coff.a(udivsi3.o)
                  0x002d2e                  __udivsi3
 .libm            0x002d4e         0x2a c:/program files (x86)/microchip/mplab c30/bin/bin/../../lib\libm-coff.a(funpack.o)
                  0x002d4e                  _funpack
 .libm            0x002d78         0x10 c:/program files (x86)/microchip/mplab c30/bin/bin/../../lib\libm-coff.a(funpack2.o)
                  0x002d78                  _funpack2
 .libm            0x002d88         0x20 c:/program files (x86)/microchip/mplab c30/bin/bin/../../lib\libm-coff.a(futil.o)
                  0x002d88                  _fPropagateNaN
                  0x002d9a                  _fbopExit
                  0x002da2                  _fbopReturnNaN
 .libm            0x002da8         0x4c c:/program files (x86)/microchip/mplab c30/bin/bin/../../lib\libm-coff.a(fpack.o)
                  0x002da8                  _fpack
 .libm            0x002df4         0x36 c:/program files (x86)/microchip/mplab c30/bin/bin/../../lib\libm-coff.a(fcompare.o)
                  0x002df4                  _fcompare
 .libm            0x002e2a          0x6 c:/program files (x86)/microchip/mplab c30/bin/bin/../../lib\libm-coff.a(umodsi3.o)
                  0x002e2a                  __umodsi3
 .libm            0x002e30         0x4e c:/program files (x86)/microchip/mplab c30/bin/bin/../../lib\libm-coff.a(fchop.o)
                  0x002e30                  _fchop
 .libm            0x002e7e         0x1a c:/program files (x86)/microchip/mplab c30/bin/bin/../../lib\libm-coff.a(_frexpf.o)
                  0x002e7e                  _frexpf
 .libm            0x002e98          0x4 c:/program files (x86)/microchip/mplab c30/bin/bin/../../lib\libm-coff.a(feqltle.o)
                  0x002e98                  __eqsf2
                  0x002e98                  __ltsf2
                  0x002e98                  __lesf2
 .libm            0x002e9c         0x44 c:/program files (x86)/microchip/mplab c30/bin/bin/../../lib\libm-coff.a(ldexpf.o)
                  0x002e9c                  ldexpf
 .libm            0x002ee0         0xae c:/program files (x86)/microchip/mplab c30/bin/bin/../../lib\libm-coff.a(logf.o)
                  0x002ee0                  logf
 .libm            0x002f8e         0xc4 c:/program files (x86)/microchip/mplab c30/bin/bin/../../lib\libm-coff.a(expf.o)
                  0x002f8e                  expf
 .libm            0x003052         0x3e c:/program files (x86)/microchip/mplab c30/bin/bin/../../lib\libm-coff.a(extendsfdf.o)
                  0x003052                  __extendsfdf2
 .libm            0x003090          0xa c:/program files (x86)/microchip/mplab c30/bin/bin/../../lib\libm-coff.a(deqltle.o)
                  0x003090                  __eqdf2
                  0x003090                  __ltdf2
                  0x003090                  __ledf2
 .libm            0x00309a         0xea c:/program files (x86)/microchip/mplab c30/bin/bin/../../lib\libm-coff.a(muldf3.o)
                  0x00309a                  __muldf3
 .libm            0x003184         0xb4 c:/program files (x86)/microchip/mplab c30/bin/bin/../../lib\libm-coff.a(divdf3.o)
                  0x003184                  __divdf3
 .libm            0x003238         0x58 c:/program files (x86)/microchip/mplab c30/bin/bin/../../lib\libm-coff.a(fixdfsi.o)
                  0x003238                  __fixdfsi
 .libm            0x003290          0x6 c:/program files (x86)/microchip/mplab c30/bin/bin/../../lib\libm-coff.a(floatsidf.o)
                  0x003290                  __floatsidf
 .libm            0x003296          0x4 c:/program files (x86)/microchip/mplab c30/bin/bin/../../lib\libm-coff.a(subdf3.o)
                  0x003296                  __subdf3
 .libm            0x00329a          0xa c:/program files (x86)/microchip/mplab c30/bin/bin/../../lib\libm-coff.a(dgtge.o)
                  0x00329a                  __gtdf2
                  0x00329a                  __gedf2
 .libm            0x0032a4         0x5c c:/program files (x86)/microchip/mplab c30/bin/bin/../../lib\libm-coff.a(muldi3.o)
                  0x0032a4                  __muldi3
 .libm            0x003300         0x52 c:/program files (x86)/microchip/mplab c30/bin/bin/../../lib\libm-coff.a(dcompare.o)
                  0x003300                  _dcompare
 .libm            0x003352         0x32 c:/program files (x86)/microchip/mplab c30/bin/bin/../../lib\libm-coff.a(dunpack2.o)
                  0x003352                  _dunpack2
                  0x003374                  _dreturnNaN
                  0x00337a                  _dunpack2exit
 .libm            0x003384         0x58 c:/program files (x86)/microchip/mplab c30/bin/bin/../../lib\libm-coff.a(dpack.o)
                  0x003384                  _dpack
 .libm            0x0033dc         0x4e c:/program files (x86)/microchip/mplab c30/bin/bin/../../lib\libm-coff.a(dunpack.o)
                  0x0033dc                  _dunpack
 .libm            0x00342a         0x6e c:/program files (x86)/microchip/mplab c30/bin/bin/../../lib\libm-coff.a(floatdidf.o)
                  0x00342a                  __floatdidf
 .libm            0x003498         0xfa c:/program files (x86)/microchip/mplab c30/bin/bin/../../lib\libm-coff.a(adddf3.o)
                  0x003498                  __adddf3
 .libm            0x003592         0x44 c:/program files (x86)/microchip/mplab c30/bin/bin/../../lib\libm-coff.a(umuldi3.o)
                  0x003592                  __umuldi3
 .libm            0x0035d6         0x24 c:/program files (x86)/microchip/mplab c30/bin/bin/../../lib\libm-coff.a(dtype.o)
                  0x0035d6                  _dtype
 .libm            0x0035fa         0x1c c:/program files (x86)/microchip/mplab c30/bin/bin/../../lib\libm-coff.a(dpropagateNaN.o)
                  0x0035fa                  _dPropagateNaN
 *(.libdsp)
 .libdsp          0x003616          0x8 build\UDB5\fbcl.o
                  0x003616                  FindFirstBitChangeFromLeft
                  0x00361a                  FindFirstBitFromLeft
 .libdsp          0x00361e         0x40 build\UDB5\madd.o
                  0x00361e                  MatrixAdd
 .libdsp          0x00365e         0x7a build\UDB5\mmul.o
                  0x00365e                  MatrixMultiply
 .libdsp          0x0036d8         0x3c build\UDB5\mscl.o
                  0x0036d8                  MatrixScale
 .libdsp          0x003714         0x4e build\UDB5\msub.o
                  0x003714                  MatrixSubtract
 .libdsp          0x003762         0x48 build\UDB5\mtrp.o
                  0x003762                  MatrixTranspose
 .libdsp          0x0037aa         0x3e build\UDB5\vadd.o
                  0x0037aa                  VectorAdd
 .libdsp          0x0037e8         0xf8 build\UDB5\vcon.o
                  0x0037e8                  VectorConvolve
 .libdsp          0x0038e0         0x10 build\UDB5\vcopy.o
                  0x0038e0                  VectorCopy
 .libdsp          0x0038f0         0x30 build\UDB5\vcor.o
                  0x0038f0                  VectorCorrelate
 .libdsp          0x003920         0x3a build\UDB5\vdot.o
                  0x003920                  VectorDotProduct
 .libdsp          0x00395a         0x1a build\UDB5\vmax.o
                  0x00395a                  VectorMax
 .libdsp          0x003974         0x1a build\UDB5\vmin.o
                  0x003974                  VectorMin
 .libdsp          0x00398e         0x3c build\UDB5\vmul.o
                  0x00398e                  VectorMultiply
 .libdsp          0x0039ca         0x40 build\UDB5\vneg.o
                  0x0039ca                  VectorNegate
 .libdsp          0x003a0a         0x38 build\UDB5\vpow.o
                  0x003a0a                  VectorPower
 .libdsp          0x003a42         0x3c build\UDB5\vscl.o
                  0x003a42                  VectorScale
 .libdsp          0x003a7e         0x4c build\UDB5\vsub.o
                  0x003a7e                  VectorSubtract
 .libdsp          0x003aca         0x1e build\UDB5\vzpad.o
                  0x003aca                  VectorZeroPad
 *(.lib*)
 .libperi         0x003ae8          0x8 c:/program files (x86)/microchip/mplab c30/bin/bin/../../lib/dsPIC33F\libp33FJ256GP710A-coff.a(CloseSPI2.o)
                  0x003ae8                  CloseSPI2
 .libperi         0x003af0         0x2a c:/program files (x86)/microchip/mplab c30/bin/bin/../../lib/dsPIC33F\libp33FJ256GP710A-coff.a(ConfigIntSPI2.o)
                  0x003af0                  ConfigIntSPI2
 .libperi         0x003b1a          0x8 c:/program files (x86)/microchip/mplab c30/bin/bin/../../lib/dsPIC33F\libp33FJ256GP710A-coff.a(OpenSPI2.o)
                  0x003b1a                  OpenSPI2

usercode
 *(usercode)

__FBS
 *(__FBS.sec*)

__FSS
 *(__FSS.sec*)

__FGS             0xf80004          0x2
 *(__FGS.sec*)
 __FGS.sec        0xf80004          0x2 FGS
                  0xf80004                  _FGS.sec

__FOSCSEL         0xf80006          0x2
 *(__FOSCSEL.sec*)
 __FOSCSEL.sec    0xf80006          0x2 build\UDB5\mcu.o

__FOSC            0xf80008          0x2
 *(__FOSC.sec*)
 __FOSC.sec       0xf80008          0x2 build\UDB5\mcu.o

__FWDT            0xf8000a          0x2
 *(__FWDT.sec*)
 __FWDT.sec       0xf8000a          0x2 build\UDB5\mcu.o

__FPOR            0xf8000c          0x2
 *(__FPOR.sec*)
 __FPOR.sec       0xf8000c          0x2 build\UDB5\mcu.o

__FICD            0xf8000e          0x2
 *(__FICD.sec*)
 __FICD.sec       0xf8000e          0x2 build\UDB5\mcu.o

__FUID0
 *(__FUID0.sec*)

__FUID1
 *(__FUID1.sec*)

__FUID2
 *(__FUID2.sec*)

__FUID3
 *(__FUID3.sec*)

.comment          0x000000         0x5e
 *(.comment)
 .comment         0x000000         0x5e c:/program files (x86)/microchip/mplab c30/bin/bin/../../lib\liblega-c-coff.a(xfiles.XXo)

.debug_info
 *(.debug_info)
 *(.gnu.linkonce.wi.*)

.debug_abbrev
 *(.debug_abbrev)

.debug_line
 *(.debug_line)

.debug_frame
 *(.debug_frame)

.debug_str
 *(.debug_str)

.debug_loc
 *(.debug_loc)

.debug_macinfo
 *(.debug_macinfo)

.debug_pubnames
 *(.debug_pubnames)

.debug_ranges
 *(.debug_ranges)

.debug_aranges
 *(.debug_aranges)

.ivt              0x000004         0xfc
                  0x000004          0x4 LONG 0x390 DEFINED (__ReservedTrap0)?ABSOLUTE (__ReservedTrap0):ABSOLUTE (__DefaultInterrupt)
                  0x000006          0x4 LONG 0x11914 DEFINED (__OscillatorFail)?ABSOLUTE (__OscillatorFail):ABSOLUTE (__DefaultInterrupt)
                  0x000008          0x4 LONG 0x11940 DEFINED (__AddressError)?ABSOLUTE (__AddressError):ABSOLUTE (__DefaultInterrupt)
                  0x00000a          0x4 LONG 0x11966 DEFINED (__StackError)?ABSOLUTE (__StackError):ABSOLUTE (__DefaultInterrupt)
                  0x00000c          0x4 LONG 0x1198c DEFINED (__MathError)?ABSOLUTE (__MathError):ABSOLUTE (__DefaultInterrupt)
                  0x00000e          0x4 LONG 0x119b2 DEFINED (__DMACError)?ABSOLUTE (__DMACError):ABSOLUTE (__DefaultInterrupt)
                  0x000010          0x4 LONG 0x390 DEFINED (__ReservedTrap6)?ABSOLUTE (__ReservedTrap6):ABSOLUTE (__DefaultInterrupt)
                  0x000012          0x4 LONG 0x390 DEFINED (__ReservedTrap7)?ABSOLUTE (__ReservedTrap7):ABSOLUTE (__DefaultInterrupt)
                  0x000014          0x4 LONG 0x390 DEFINED (__INT0Interrupt)?ABSOLUTE (__INT0Interrupt):ABSOLUTE (__DefaultInterrupt)
                  0x000016          0x4 LONG 0xdc7e DEFINED (__IC1Interrupt)?ABSOLUTE (__IC1Interrupt):ABSOLUTE (__DefaultInterrupt)
                  0x000018          0x4 LONG 0x390 DEFINED (__OC1Interrupt)?ABSOLUTE (__OC1Interrupt):ABSOLUTE (__DefaultInterrupt)
                  0x00001a          0x4 LONG 0x11032 DEFINED (__T1Interrupt)?ABSOLUTE (__T1Interrupt):ABSOLUTE (__DefaultInterrupt)
                  0x00001c          0x4 LONG 0xfd06 DEFINED (__DMA0Interrupt)?ABSOLUTE (__DMA0Interrupt):ABSOLUTE (__DefaultInterrupt)
                  0x00001e          0x4 LONG 0xdcca DEFINED (__IC2Interrupt)?ABSOLUTE (__IC2Interrupt):ABSOLUTE (__DefaultInterrupt)
                  0x000020          0x4 LONG 0x390 DEFINED (__OC2Interrupt)?ABSOLUTE (__OC2Interrupt):ABSOLUTE (__DefaultInterrupt)
                  0x000022          0x4 LONG 0x390 DEFINED (__T2Interrupt)?ABSOLUTE (__T2Interrupt):ABSOLUTE (__DefaultInterrupt)
                  0x000024          0x4 LONG 0x390 DEFINED (__T3Interrupt)?ABSOLUTE (__T3Interrupt):ABSOLUTE (__DefaultInterrupt)
                  0x000026          0x4 LONG 0x390 DEFINED (__SPI1ErrInterrupt)?ABSOLUTE (__SPI1ErrInterrupt):ABSOLUTE (__DefaultInterrupt)
                  0x000028          0x4 LONG 0x390 DEFINED (__SPI1Interrupt)?ABSOLUTE (__SPI1Interrupt):ABSOLUTE (__DefaultInterrupt)
                  0x00002a          0x4 LONG 0xf546 DEFINED (__U1RXInterrupt)?ABSOLUTE (__U1RXInterrupt):ABSOLUTE (__DefaultInterrupt)
                  0x00002c          0x4 LONG 0xf506 DEFINED (__U1TXInterrupt)?ABSOLUTE (__U1TXInterrupt):ABSOLUTE (__DefaultInterrupt)
                  0x00002e          0x4 LONG 0x390 DEFINED (__ADC1Interrupt)?ABSOLUTE (__ADC1Interrupt):ABSOLUTE (__DefaultInterrupt)
                  0x000030          0x4 LONG 0x390 DEFINED (__DMA1Interrupt)?ABSOLUTE (__DMA1Interrupt):ABSOLUTE (__DefaultInterrupt)
                  0x000032          0x4 LONG 0x390 DEFINED (__Interrupt15)?ABSOLUTE (__Interrupt15):ABSOLUTE (__DefaultInterrupt)
                  0x000034          0x4 LONG 0x390 DEFINED (__SI2C1Interrupt)?ABSOLUTE (__SI2C1Interrupt):ABSOLUTE (__DefaultInterrupt)
                  0x000036          0x4 LONG 0xe5e4 DEFINED (__MI2C1Interrupt)?ABSOLUTE (__MI2C1Interrupt):ABSOLUTE (__DefaultInterrupt)
                  0x000038          0x4 LONG 0x390 DEFINED (__Interrupt18)?ABSOLUTE (__Interrupt18):ABSOLUTE (__DefaultInterrupt)
                  0x00003a          0x4 LONG 0x390 DEFINED (__CNInterrupt)?ABSOLUTE (__CNInterrupt):ABSOLUTE (__DefaultInterrupt)
                  0x00003c          0x4 LONG 0x390 DEFINED (__INT1Interrupt)?ABSOLUTE (__INT1Interrupt):ABSOLUTE (__DefaultInterrupt)
                  0x00003e          0x4 LONG 0x390 DEFINED (__ADC2Interrupt)?ABSOLUTE (__ADC2Interrupt):ABSOLUTE (__DefaultInterrupt)
                  0x000040          0x4 LONG 0xde46 DEFINED (__IC7Interrupt)?ABSOLUTE (__IC7Interrupt):ABSOLUTE (__DefaultInterrupt)
                  0x000042          0x4 LONG 0xde92 DEFINED (__IC8Interrupt)?ABSOLUTE (__IC8Interrupt):ABSOLUTE (__DefaultInterrupt)
                  0x000044          0x4 LONG 0x390 DEFINED (__DMA2Interrupt)?ABSOLUTE (__DMA2Interrupt):ABSOLUTE (__DefaultInterrupt)
                  0x000046          0x4 LONG 0x390 DEFINED (__OC3Interrupt)?ABSOLUTE (__OC3Interrupt):ABSOLUTE (__DefaultInterrupt)
                  0x000048          0x4 LONG 0x390 DEFINED (__OC4Interrupt)?ABSOLUTE (__OC4Interrupt):ABSOLUTE (__DefaultInterrupt)
                  0x00004a          0x4 LONG 0x10ea0 DEFINED (__T4Interrupt)?ABSOLUTE (__T4Interrupt):ABSOLUTE (__DefaultInterrupt)
                  0x00004c          0x4 LONG 0x1105a DEFINED (__T5Interrupt)?ABSOLUTE (__T5Interrupt):ABSOLUTE (__DefaultInterrupt)
                  0x00004e          0x4 LONG 0x390 DEFINED (__INT2Interrupt)?ABSOLUTE (__INT2Interrupt):ABSOLUTE (__DefaultInterrupt)
                  0x000050          0x4 LONG 0xf6a4 DEFINED (__U2RXInterrupt)?ABSOLUTE (__U2RXInterrupt):ABSOLUTE (__DefaultInterrupt)
                  0x000052          0x4 LONG 0xf664 DEFINED (__U2TXInterrupt)?ABSOLUTE (__U2TXInterrupt):ABSOLUTE (__DefaultInterrupt)
                  0x000054          0x4 LONG 0x390 DEFINED (__SPI2ErrInterrupt)?ABSOLUTE (__SPI2ErrInterrupt):ABSOLUTE (__DefaultInterrupt)
                  0x000056          0x4 LONG 0x10d00 DEFINED (__SPI2Interrupt)?ABSOLUTE (__SPI2Interrupt):ABSOLUTE (__DefaultInterrupt)
                  0x000058          0x4 LONG 0x390 DEFINED (__C1RxRdyInterrupt)?ABSOLUTE (__C1RxRdyInterrupt):ABSOLUTE (__DefaultInterrupt)
                  0x00005a          0x4 LONG 0x10820 DEFINED (__C1Interrupt)?ABSOLUTE (__C1Interrupt):ABSOLUTE (__DefaultInterrupt)
                  0x00005c          0x4 LONG 0x390 DEFINED (__DMA3Interrupt)?ABSOLUTE (__DMA3Interrupt):ABSOLUTE (__DefaultInterrupt)
                  0x00005e          0x4 LONG 0xdd16 DEFINED (__IC3Interrupt)?ABSOLUTE (__IC3Interrupt):ABSOLUTE (__DefaultInterrupt)
                  0x000060          0x4 LONG 0xdd62 DEFINED (__IC4Interrupt)?ABSOLUTE (__IC4Interrupt):ABSOLUTE (__DefaultInterrupt)
                  0x000062          0x4 LONG 0xddae DEFINED (__IC5Interrupt)?ABSOLUTE (__IC5Interrupt):ABSOLUTE (__DefaultInterrupt)
                  0x000064          0x4 LONG 0xddfa DEFINED (__IC6Interrupt)?ABSOLUTE (__IC6Interrupt):ABSOLUTE (__DefaultInterrupt)
                  0x000066          0x4 LONG 0x390 DEFINED (__OC5Interrupt)?ABSOLUTE (__OC5Interrupt):ABSOLUTE (__DefaultInterrupt)
                  0x000068          0x4 LONG 0x390 DEFINED (__OC6Interrupt)?ABSOLUTE (__OC6Interrupt):ABSOLUTE (__DefaultInterrupt)
                  0x00006a          0x4 LONG 0x390 DEFINED (__OC7Interrupt)?ABSOLUTE (__OC7Interrupt):ABSOLUTE (__DefaultInterrupt)
                  0x00006c          0x4 LONG 0x390 DEFINED (__OC8Interrupt)?ABSOLUTE (__OC8Interrupt):ABSOLUTE (__DefaultInterrupt)
                  0x00006e          0x4 LONG 0x390 DEFINED (__Interrupt45)?ABSOLUTE (__Interrupt45):ABSOLUTE (__DefaultInterrupt)
                  0x000070          0x4 LONG 0x390 DEFINED (__DMA4Interrupt)?ABSOLUTE (__DMA4Interrupt):ABSOLUTE (__DefaultInterrupt)
                  0x000072          0x4 LONG 0x11078 DEFINED (__T6Interrupt)?ABSOLUTE (__T6Interrupt):ABSOLUTE (__DefaultInterrupt)
                  0x000074          0x4 LONG 0x110b4 DEFINED (__T7Interrupt)?ABSOLUTE (__T7Interrupt):ABSOLUTE (__DefaultInterrupt)
                  0x000076          0x4 LONG 0x390 DEFINED (__SI2C2Interrupt)?ABSOLUTE (__SI2C2Interrupt):ABSOLUTE (__DefaultInterrupt)
                  0x000078          0x4 LONG 0xd810 DEFINED (__MI2C2Interrupt)?ABSOLUTE (__MI2C2Interrupt):ABSOLUTE (__DefaultInterrupt)
                  0x00007a          0x4 LONG 0x390 DEFINED (__T8Interrupt)?ABSOLUTE (__T8Interrupt):ABSOLUTE (__DefaultInterrupt)
                  0x00007c          0x4 LONG 0x390 DEFINED (__T9Interrupt)?ABSOLUTE (__T9Interrupt):ABSOLUTE (__DefaultInterrupt)
                  0x00007e          0x4 LONG 0x1146a DEFINED (__INT3Interrupt)?ABSOLUTE (__INT3Interrupt):ABSOLUTE (__DefaultInterrupt)
                  0x000080          0x4 LONG 0x390 DEFINED (__INT4Interrupt)?ABSOLUTE (__INT4Interrupt):ABSOLUTE (__DefaultInterrupt)
                  0x000082          0x4 LONG 0x390 DEFINED (__C2RxRdyInterrupt)?ABSOLUTE (__C2RxRdyInterrupt):ABSOLUTE (__DefaultInterrupt)
                  0x000084          0x4 LONG 0x107b4 DEFINED (__C2Interrupt)?ABSOLUTE (__C2Interrupt):ABSOLUTE (__DefaultInterrupt)
                  0x000086          0x4 LONG 0x390 DEFINED (__Interrupt57)?ABSOLUTE (__Interrupt57):ABSOLUTE (__DefaultInterrupt)
                  0x000088          0x4 LONG 0x390 DEFINED (__Interrupt58)?ABSOLUTE (__Interrupt58):ABSOLUTE (__DefaultInterrupt)
                  0x00008a          0x4 LONG 0x390 DEFINED (__DCIErrInterrupt)?ABSOLUTE (__DCIErrInterrupt):ABSOLUTE (__DefaultInterrupt)
                  0x00008c          0x4 LONG 0x390 DEFINED (__DCIInterrupt)?ABSOLUTE (__DCIInterrupt):ABSOLUTE (__DefaultInterrupt)
                  0x00008e          0x4 LONG 0x390 DEFINED (__Interrupt61)?ABSOLUTE (__Interrupt61):ABSOLUTE (__DefaultInterrupt)
                  0x000090          0x4 LONG 0x390 DEFINED (__Interrupt62)?ABSOLUTE (__Interrupt62):ABSOLUTE (__DefaultInterrupt)
                  0x000092          0x4 LONG 0x390 DEFINED (__Interrupt63)?ABSOLUTE (__Interrupt63):ABSOLUTE (__DefaultInterrupt)
                  0x000094          0x4 LONG 0x390 DEFINED (__Interrupt64)?ABSOLUTE (__Interrupt64):ABSOLUTE (__DefaultInterrupt)
                  0x000096          0x4 LONG 0x390 DEFINED (__U1ErrInterrupt)?ABSOLUTE (__U1ErrInterrupt):ABSOLUTE (__DefaultInterrupt)
                  0x000098          0x4 LONG 0x390 DEFINED (__U2ErrInterrupt)?ABSOLUTE (__U2ErrInterrupt):ABSOLUTE (__DefaultInterrupt)
                  0x00009a          0x4 LONG 0x390 DEFINED (__Interrupt67)?ABSOLUTE (__Interrupt67):ABSOLUTE (__DefaultInterrupt)
                  0x00009c          0x4 LONG 0x390 DEFINED (__DMA6Interrupt)?ABSOLUTE (__DMA6Interrupt):ABSOLUTE (__DefaultInterrupt)
                  0x00009e          0x4 LONG 0x390 DEFINED (__DMA7Interrupt)?ABSOLUTE (__DMA7Interrupt):ABSOLUTE (__DefaultInterrupt)
                  0x0000a0          0x4 LONG 0x390 DEFINED (__C1TxReqInterrupt)?ABSOLUTE (__C1TxReqInterrupt):ABSOLUTE (__DefaultInterrupt)
                  0x0000a2          0x4 LONG 0x390 DEFINED (__C2TxReqInterrupt)?ABSOLUTE (__C2TxReqInterrupt):ABSOLUTE (__DefaultInterrupt)
                  0x0000a4          0x4 LONG 0x390 DEFINED (__Interrupt72)?ABSOLUTE (__Interrupt72):ABSOLUTE (__DefaultInterrupt)
                  0x0000a6          0x4 LONG 0x390 DEFINED (__Interrupt73)?ABSOLUTE (__Interrupt73):ABSOLUTE (__DefaultInterrupt)
                  0x0000a8          0x4 LONG 0x390 DEFINED (__Interrupt74)?ABSOLUTE (__Interrupt74):ABSOLUTE (__DefaultInterrupt)
                  0x0000aa          0x4 LONG 0x390 DEFINED (__Interrupt75)?ABSOLUTE (__Interrupt75):ABSOLUTE (__DefaultInterrupt)
                  0x0000ac          0x4 LONG 0x390 DEFINED (__Interrupt76)?ABSOLUTE (__Interrupt76):ABSOLUTE (__DefaultInterrupt)
                  0x0000ae          0x4 LONG 0x390 DEFINED (__Interrupt77)?ABSOLUTE (__Interrupt77):ABSOLUTE (__DefaultInterrupt)
                  0x0000b0          0x4 LONG 0x390 DEFINED (__Interrupt78)?ABSOLUTE (__Interrupt78):ABSOLUTE (__DefaultInterrupt)
                  0x0000b2          0x4 LONG 0x390 DEFINED (__Interrupt79)?ABSOLUTE (__Interrupt79):ABSOLUTE (__DefaultInterrupt)
                  0x0000b4          0x4 LONG 0x390 DEFINED (__Interrupt80)?ABSOLUTE (__Interrupt80):ABSOLUTE (__DefaultInterrupt)
                  0x0000b6          0x4 LONG 0x390 DEFINED (__Interrupt81)?ABSOLUTE (__Interrupt81):ABSOLUTE (__DefaultInterrupt)
                  0x0000b8          0x4 LONG 0x390 DEFINED (__Interrupt82)?ABSOLUTE (__Interrupt82):ABSOLUTE (__DefaultInterrupt)
                  0x0000ba          0x4 LONG 0x390 DEFINED (__Interrupt83)?ABSOLUTE (__Interrupt83):ABSOLUTE (__DefaultInterrupt)
                  0x0000bc          0x4 LONG 0x390 DEFINED (__Interrupt84)?ABSOLUTE (__Interrupt84):ABSOLUTE (__DefaultInterrupt)
                  0x0000be          0x4 LONG 0x390 DEFINED (__Interrupt85)?ABSOLUTE (__Interrupt85):ABSOLUTE (__DefaultInterrupt)
                  0x0000c0          0x4 LONG 0x390 DEFINED (__Interrupt86)?ABSOLUTE (__Interrupt86):ABSOLUTE (__DefaultInterrupt)
                  0x0000c2          0x4 LONG 0x390 DEFINED (__Interrupt87)?ABSOLUTE (__Interrupt87):ABSOLUTE (__DefaultInterrupt)
                  0x0000c4          0x4 LONG 0x390 DEFINED (__Interrupt88)?ABSOLUTE (__Interrupt88):ABSOLUTE (__DefaultInterrupt)
                  0x0000c6          0x4 LONG 0x390 DEFINED (__Interrupt89)?ABSOLUTE (__Interrupt89):ABSOLUTE (__DefaultInterrupt)
                  0x0000c8          0x4 LONG 0x390 DEFINED (__Interrupt90)?ABSOLUTE (__Interrupt90):ABSOLUTE (__DefaultInterrupt)
                  0x0000ca          0x4 LONG 0x390 DEFINED (__Interrupt91)?ABSOLUTE (__Interrupt91):ABSOLUTE (__DefaultInterrupt)
                  0x0000cc          0x4 LONG 0x390 DEFINED (__Interrupt92)?ABSOLUTE (__Interrupt92):ABSOLUTE (__DefaultInterrupt)
                  0x0000ce          0x4 LONG 0x390 DEFINED (__Interrupt93)?ABSOLUTE (__Interrupt93):ABSOLUTE (__DefaultInterrupt)
                  0x0000d0          0x4 LONG 0x390 DEFINED (__Interrupt94)?ABSOLUTE (__Interrupt94):ABSOLUTE (__DefaultInterrupt)
                  0x0000d2          0x4 LONG 0x390 DEFINED (__Interrupt95)?ABSOLUTE (__Interrupt95):ABSOLUTE (__DefaultInterrupt)
                  0x0000d4          0x4 LONG 0x390 DEFINED (__Interrupt96)?ABSOLUTE (__Interrupt96):ABSOLUTE (__DefaultInterrupt)
                  0x0000d6          0x4 LONG 0x390 DEFINED (__Interrupt97)?ABSOLUTE (__Interrupt97):ABSOLUTE (__DefaultInterrupt)
                  0x0000d8          0x4 LONG 0x390 DEFINED (__Interrupt98)?ABSOLUTE (__Interrupt98):ABSOLUTE (__DefaultInterrupt)
                  0x0000da          0x4 LONG 0x390 DEFINED (__Interrupt99)?ABSOLUTE (__Interrupt99):ABSOLUTE (__DefaultInterrupt)
                  0x0000dc          0x4 LONG 0x390 DEFINED (__Interrupt100)?ABSOLUTE (__Interrupt100):ABSOLUTE (__DefaultInterrupt)
                  0x0000de          0x4 LONG 0x390 DEFINED (__Interrupt101)?ABSOLUTE (__Interrupt101):ABSOLUTE (__DefaultInterrupt)
                  0x0000e0          0x4 LONG 0x390 DEFINED (__Interrupt102)?ABSOLUTE (__Interrupt102):ABSOLUTE (__DefaultInterrupt)
                  0x0000e2          0x4 LONG 0x390 DEFINED (__Interrupt103)?ABSOLUTE (__Interrupt103):ABSOLUTE (__DefaultInterrupt)
                  0x0000e4          0x4 LONG 0x390 DEFINED (__Interrupt104)?ABSOLUTE (__Interrupt104):ABSOLUTE (__DefaultInterrupt)
                  0x0000e6          0x4 LONG 0x390 DEFINED (__Interrupt105)?ABSOLUTE (__Interrupt105):ABSOLUTE (__DefaultInterrupt)
                  0x0000e8          0x4 LONG 0x390 DEFINED (__Interrupt106)?ABSOLUTE (__Interrupt106):ABSOLUTE (__DefaultInterrupt)
                  0x0000ea          0x4 LONG 0x390 DEFINED (__Interrupt107)?ABSOLUTE (__Interrupt107):ABSOLUTE (__DefaultInterrupt)
                  0x0000ec          0x4 LONG 0x390 DEFINED (__Interrupt108)?ABSOLUTE (__Interrupt108):ABSOLUTE (__DefaultInterrupt)
                  0x0000ee          0x4 LONG 0x390 DEFINED (__Interrupt109)?ABSOLUTE (__Interrupt109):ABSOLUTE (__DefaultInterrupt)
                  0x0000f0          0x4 LONG 0x390 DEFINED (__Interrupt110)?ABSOLUTE (__Interrupt110):ABSOLUTE (__DefaultInterrupt)
                  0x0000f2          0x4 LONG 0x390 DEFINED (__Interrupt111)?ABSOLUTE (__Interrupt111):ABSOLUTE (__DefaultInterrupt)
                  0x0000f4          0x4 LONG 0x390 DEFINED (__Interrupt112)?ABSOLUTE (__Interrupt112):ABSOLUTE (__DefaultInterrupt)
                  0x0000f6          0x4 LONG 0x390 DEFINED (__Interrupt113)?ABSOLUTE (__Interrupt113):ABSOLUTE (__DefaultInterrupt)
                  0x0000f8          0x4 LONG 0x390 DEFINED (__Interrupt114)?ABSOLUTE (__Interrupt114):ABSOLUTE (__DefaultInterrupt)
                  0x0000fa          0x4 LONG 0x390 DEFINED (__Interrupt115)?ABSOLUTE (__Interrupt115):ABSOLUTE (__DefaultInterrupt)
                  0x0000fc          0x4 LONG 0x390 DEFINED (__Interrupt116)?ABSOLUTE (__Interrupt116):ABSOLUTE (__DefaultInterrupt)
                  0x0000fe          0x4 LONG 0x390 DEFINED (__Interrupt117)?ABSOLUTE (__Interrupt117):ABSOLUTE (__DefaultInterrupt)

.aivt             0x000104         0xfc
                  0x000104          0x4 LONG 0x390 DEFINED (__AltReservedTrap0)?ABSOLUTE (__AltReservedTrap0):DEFINED (__ReservedTrap0)?ABSOLUTE (__ReservedTrap0):ABSOLUTE (__DefaultInterrupt)
                  0x000106          0x4 LONG 0x11914 DEFINED (__AltOscillatorFail)?ABSOLUTE (__AltOscillatorFail):DEFINED (__OscillatorFail)?ABSOLUTE (__OscillatorFail):ABSOLUTE (__DefaultInterrupt)
                  0x000108          0x4 LONG 0x11940 DEFINED (__AltAddressError)?ABSOLUTE (__AltAddressError):DEFINED (__AddressError)?ABSOLUTE (__AddressError):ABSOLUTE (__DefaultInterrupt)
                  0x00010a          0x4 LONG 0x11966 DEFINED (__AltStackError)?ABSOLUTE (__AltStackError):DEFINED (__StackError)?ABSOLUTE (__StackError):ABSOLUTE (__DefaultInterrupt)
                  0x00010c          0x4 LONG 0x1198c DEFINED (__AltMathError)?ABSOLUTE (__AltMathError):DEFINED (__MathError)?ABSOLUTE (__MathError):ABSOLUTE (__DefaultInterrupt)
                  0x00010e          0x4 LONG 0x119b2 DEFINED (__AltDMACError)?ABSOLUTE (__AltDMACError):DEFINED (__DMACError)?ABSOLUTE (__DMACError):ABSOLUTE (__DefaultInterrupt)
                  0x000110          0x4 LONG 0x390 DEFINED (__AltReservedTrap6)?ABSOLUTE (__AltReservedTrap6):DEFINED (__ReservedTrap6)?ABSOLUTE (__ReservedTrap6):ABSOLUTE (__DefaultInterrupt)
                  0x000112          0x4 LONG 0x390 DEFINED (__AltReservedTrap7)?ABSOLUTE (__AltReservedTrap7):DEFINED (__ReservedTrap7)?ABSOLUTE (__ReservedTrap7):ABSOLUTE (__DefaultInterrupt)
                  0x000114          0x4 LONG 0x390 DEFINED (__AltINT0Interrupt)?ABSOLUTE (__AltINT0Interrupt):DEFINED (__INT0Interrupt)?ABSOLUTE (__INT0Interrupt):ABSOLUTE (__DefaultInterrupt)
                  0x000116          0x4 LONG 0xdc7e DEFINED (__AltIC1Interrupt)?ABSOLUTE (__AltIC1Interrupt):DEFINED (__IC1Interrupt)?ABSOLUTE (__IC1Interrupt):ABSOLUTE (__DefaultInterrupt)
                  0x000118          0x4 LONG 0x390 DEFINED (__AltOC1Interrupt)?ABSOLUTE (__AltOC1Interrupt):DEFINED (__OC1Interrupt)?ABSOLUTE (__OC1Interrupt):ABSOLUTE (__DefaultInterrupt)
                  0x00011a          0x4 LONG 0x11032 DEFINED (__AltT1Interrupt)?ABSOLUTE (__AltT1Interrupt):DEFINED (__T1Interrupt)?ABSOLUTE (__T1Interrupt):ABSOLUTE (__DefaultInterrupt)
                  0x00011c          0x4 LONG 0xfd06 DEFINED (__AltDMA0Interrupt)?ABSOLUTE (__AltDMA0Interrupt):DEFINED (__DMA0Interrupt)?ABSOLUTE (__DMA0Interrupt):ABSOLUTE (__DefaultInterrupt)
                  0x00011e          0x4 LONG 0xdcca DEFINED (__AltIC2Interrupt)?ABSOLUTE (__AltIC2Interrupt):DEFINED (__IC2Interrupt)?ABSOLUTE (__IC2Interrupt):ABSOLUTE (__DefaultInterrupt)
                  0x000120          0x4 LONG 0x390 DEFINED (__AltOC2Interrupt)?ABSOLUTE (__AltOC2Interrupt):DEFINED (__OC2Interrupt)?ABSOLUTE (__OC2Interrupt):ABSOLUTE (__DefaultInterrupt)
                  0x000122          0x4 LONG 0x390 DEFINED (__AltT2Interrupt)?ABSOLUTE (__AltT2Interrupt):DEFINED (__T2Interrupt)?ABSOLUTE (__T2Interrupt):ABSOLUTE (__DefaultInterrupt)
                  0x000124          0x4 LONG 0x390 DEFINED (__AltT3Interrupt)?ABSOLUTE (__AltT3Interrupt):DEFINED (__T3Interrupt)?ABSOLUTE (__T3Interrupt):ABSOLUTE (__DefaultInterrupt)
                  0x000126          0x4 LONG 0x390 DEFINED (__AltSPI1ErrInterrupt)?ABSOLUTE (__AltSPI1ErrInterrupt):DEFINED (__SPI1ErrInterrupt)?ABSOLUTE (__SPI1ErrInterrupt):ABSOLUTE (__DefaultInterrupt)
                  0x000128          0x4 LONG 0x390 DEFINED (__AltSPI1Interrupt)?ABSOLUTE (__AltSPI1Interrupt):DEFINED (__SPI1Interrupt)?ABSOLUTE (__SPI1Interrupt):ABSOLUTE (__DefaultInterrupt)
                  0x00012a          0x4 LONG 0xf546 DEFINED (__AltU1RXInterrupt)?ABSOLUTE (__AltU1RXInterrupt):DEFINED (__U1RXInterrupt)?ABSOLUTE (__U1RXInterrupt):ABSOLUTE (__DefaultInterrupt)
                  0x00012c          0x4 LONG 0xf506 DEFINED (__AltU1TXInterrupt)?ABSOLUTE (__AltU1TXInterrupt):DEFINED (__U1TXInterrupt)?ABSOLUTE (__U1TXInterrupt):ABSOLUTE (__DefaultInterrupt)
                  0x00012e          0x4 LONG 0x390 DEFINED (__AltADC1Interrupt)?ABSOLUTE (__AltADC1Interrupt):DEFINED (__ADC1Interrupt)?ABSOLUTE (__ADC1Interrupt):ABSOLUTE (__DefaultInterrupt)
                  0x000130          0x4 LONG 0x390 DEFINED (__AltDMA1Interrupt)?ABSOLUTE (__AltDMA1Interrupt):DEFINED (__DMA1Interrupt)?ABSOLUTE (__DMA1Interrupt):ABSOLUTE (__DefaultInterrupt)
                  0x000132          0x4 LONG 0x390 DEFINED (__AltInterrupt15)?ABSOLUTE (__AltInterrupt15):DEFINED (__Interrupt15)?ABSOLUTE (__Interrupt15):ABSOLUTE (__DefaultInterrupt)
                  0x000134          0x4 LONG 0x390 DEFINED (__AltSI2C1Interrupt)?ABSOLUTE (__AltSI2C1Interrupt):DEFINED (__SI2C1Interrupt)?ABSOLUTE (__SI2C1Interrupt):ABSOLUTE (__DefaultInterrupt)
                  0x000136          0x4 LONG 0xe5e4 DEFINED (__AltMI2C1Interrupt)?ABSOLUTE (__AltMI2C1Interrupt):DEFINED (__MI2C1Interrupt)?ABSOLUTE (__MI2C1Interrupt):ABSOLUTE (__DefaultInterrupt)
                  0x000138          0x4 LONG 0x390 DEFINED (__AltInterrupt18)?ABSOLUTE (__AltInterrupt18):DEFINED (__Interrupt18)?ABSOLUTE (__Interrupt18):ABSOLUTE (__DefaultInterrupt)
                  0x00013a          0x4 LONG 0x390 DEFINED (__AltCNInterrupt)?ABSOLUTE (__AltCNInterrupt):DEFINED (__CNInterrupt)?ABSOLUTE (__CNInterrupt):ABSOLUTE (__DefaultInterrupt)
                  0x00013c          0x4 LONG 0x390 DEFINED (__AltINT1Interrupt)?ABSOLUTE (__AltINT1Interrupt):DEFINED (__INT1Interrupt)?ABSOLUTE (__INT1Interrupt):ABSOLUTE (__DefaultInterrupt)
                  0x00013e          0x4 LONG 0x390 DEFINED (__AltADC2Interrupt)?ABSOLUTE (__AltADC2Interrupt):DEFINED (__ADC2Interrupt)?ABSOLUTE (__ADC2Interrupt):ABSOLUTE (__DefaultInterrupt)
                  0x000140          0x4 LONG 0xde46 DEFINED (__AltIC7Interrupt)?ABSOLUTE (__AltIC7Interrupt):DEFINED (__IC7Interrupt)?ABSOLUTE (__IC7Interrupt):ABSOLUTE (__DefaultInterrupt)
                  0x000142          0x4 LONG 0xde92 DEFINED (__AltIC8Interrupt)?ABSOLUTE (__AltIC8Interrupt):DEFINED (__IC8Interrupt)?ABSOLUTE (__IC8Interrupt):ABSOLUTE (__DefaultInterrupt)
                  0x000144          0x4 LONG 0x390 DEFINED (__AltDMA2Interrupt)?ABSOLUTE (__AltDMA2Interrupt):DEFINED (__DMA2Interrupt)?ABSOLUTE (__DMA2Interrupt):ABSOLUTE (__DefaultInterrupt)
                  0x000146          0x4 LONG 0x390 DEFINED (__AltOC3Interrupt)?ABSOLUTE (__AltOC3Interrupt):DEFINED (__OC3Interrupt)?ABSOLUTE (__OC3Interrupt):ABSOLUTE (__DefaultInterrupt)
                  0x000148          0x4 LONG 0x390 DEFINED (__AltOC4Interrupt)?ABSOLUTE (__AltOC4Interrupt):DEFINED (__OC4Interrupt)?ABSOLUTE (__OC4Interrupt):ABSOLUTE (__DefaultInterrupt)
                  0x00014a          0x4 LONG 0x10ea0 DEFINED (__AltT4Interrupt)?ABSOLUTE (__AltT4Interrupt):DEFINED (__T4Interrupt)?ABSOLUTE (__T4Interrupt):ABSOLUTE (__DefaultInterrupt)
                  0x00014c          0x4 LONG 0x1105a DEFINED (__AltT5Interrupt)?ABSOLUTE (__AltT5Interrupt):DEFINED (__T5Interrupt)?ABSOLUTE (__T5Interrupt):ABSOLUTE (__DefaultInterrupt)
                  0x00014e          0x4 LONG 0x390 DEFINED (__AltINT2Interrupt)?ABSOLUTE (__AltINT2Interrupt):DEFINED (__INT2Interrupt)?ABSOLUTE (__INT2Interrupt):ABSOLUTE (__DefaultInterrupt)
                  0x000150          0x4 LONG 0xf6a4 DEFINED (__AltU2RXInterrupt)?ABSOLUTE (__AltU2RXInterrupt):DEFINED (__U2RXInterrupt)?ABSOLUTE (__U2RXInterrupt):ABSOLUTE (__DefaultInterrupt)
                  0x000152          0x4 LONG 0xf664 DEFINED (__AltU2TXInterrupt)?ABSOLUTE (__AltU2TXInterrupt):DEFINED (__U2TXInterrupt)?ABSOLUTE (__U2TXInterrupt):ABSOLUTE (__DefaultInterrupt)
                  0x000154          0x4 LONG 0x390 DEFINED (__AltSPI2ErrInterrupt)?ABSOLUTE (__AltSPI2ErrInterrupt):DEFINED (__SPI2ErrInterrupt)?ABSOLUTE (__SPI2ErrInterrupt):ABSOLUTE (__DefaultInterrupt)
                  0x000156          0x4 LONG 0x10d00 DEFINED (__AltSPI2Interrupt)?ABSOLUTE (__AltSPI2Interrupt):DEFINED (__SPI2Interrupt)?ABSOLUTE (__SPI2Interrupt):ABSOLUTE (__DefaultInterrupt)
                  0x000158          0x4 LONG 0x390 DEFINED (__AltC1RxRdyInterrupt)?ABSOLUTE (__AltC1RxRdyInterrupt):DEFINED (__C1RxRdyInterrupt)?ABSOLUTE (__C1RxRdyInterrupt):ABSOLUTE (__DefaultInterrupt)
                  0x00015a          0x4 LONG 0x10820 DEFINED (__AltC1Interrupt)?ABSOLUTE (__AltC1Interrupt):DEFINED (__C1Interrupt)?ABSOLUTE (__C1Interrupt):ABSOLUTE (__DefaultInterrupt)
                  0x00015c          0x4 LONG 0x390 DEFINED (__AltDMA3Interrupt)?ABSOLUTE (__AltDMA3Interrupt):DEFINED (__DMA3Interrupt)?ABSOLUTE (__DMA3Interrupt):ABSOLUTE (__DefaultInterrupt)
                  0x00015e          0x4 LONG 0xdd16 DEFINED (__AltIC3Interrupt)?ABSOLUTE (__AltIC3Interrupt):DEFINED (__IC3Interrupt)?ABSOLUTE (__IC3Interrupt):ABSOLUTE (__DefaultInterrupt)
                  0x000160          0x4 LONG 0xdd62 DEFINED (__AltIC4Interrupt)?ABSOLUTE (__AltIC4Interrupt):DEFINED (__IC4Interrupt)?ABSOLUTE (__IC4Interrupt):ABSOLUTE (__DefaultInterrupt)
                  0x000162          0x4 LONG 0xddae DEFINED (__AltIC5Interrupt)?ABSOLUTE (__AltIC5Interrupt):DEFINED (__IC5Interrupt)?ABSOLUTE (__IC5Interrupt):ABSOLUTE (__DefaultInterrupt)
                  0x000164          0x4 LONG 0xddfa DEFINED (__AltIC6Interrupt)?ABSOLUTE (__AltIC6Interrupt):DEFINED (__IC6Interrupt)?ABSOLUTE (__IC6Interrupt):ABSOLUTE (__DefaultInterrupt)
                  0x000166          0x4 LONG 0x390 DEFINED (__AltOC5Interrupt)?ABSOLUTE (__AltOC5Interrupt):DEFINED (__OC5Interrupt)?ABSOLUTE (__OC5Interrupt):ABSOLUTE (__DefaultInterrupt)
                  0x000168          0x4 LONG 0x390 DEFINED (__AltOC6Interrupt)?ABSOLUTE (__AltOC6Interrupt):DEFINED (__OC6Interrupt)?ABSOLUTE (__OC6Interrupt):ABSOLUTE (__DefaultInterrupt)
                  0x00016a          0x4 LONG 0x390 DEFINED (__AltOC7Interrupt)?ABSOLUTE (__AltOC7Interrupt):DEFINED (__OC7Interrupt)?ABSOLUTE (__OC7Interrupt):ABSOLUTE (__DefaultInterrupt)
                  0x00016c          0x4 LONG 0x390 DEFINED (__AltOC8Interrupt)?ABSOLUTE (__AltOC8Interrupt):DEFINED (__OC8Interrupt)?ABSOLUTE (__OC8Interrupt):ABSOLUTE (__DefaultInterrupt)
                  0x00016e          0x4 LONG 0x390 DEFINED (__AltInterrupt45)?ABSOLUTE (__AltInterrupt45):DEFINED (__Interrupt45)?ABSOLUTE (__Interrupt45):ABSOLUTE (__DefaultInterrupt)
                  0x000170          0x4 LONG 0x390 DEFINED (__AltDMA4Interrupt)?ABSOLUTE (__AltDMA4Interrupt):DEFINED (__DMA4Interrupt)?ABSOLUTE (__DMA4Interrupt):ABSOLUTE (__DefaultInterrupt)
                  0x000172          0x4 LONG 0x11078 DEFINED (__AltT6Interrupt)?ABSOLUTE (__AltT6Interrupt):DEFINED (__T6Interrupt)?ABSOLUTE (__T6Interrupt):ABSOLUTE (__DefaultInterrupt)
                  0x000174          0x4 LONG 0x110b4 DEFINED (__AltT7Interrupt)?ABSOLUTE (__AltT7Interrupt):DEFINED (__T7Interrupt)?ABSOLUTE (__T7Interrupt):ABSOLUTE (__DefaultInterrupt)
                  0x000176          0x4 LONG 0x390 DEFINED (__AltSI2C2Interrupt)?ABSOLUTE (__AltSI2C2Interrupt):DEFINED (__SI2C2Interrupt)?ABSOLUTE (__SI2C2Interrupt):ABSOLUTE (__DefaultInterrupt)
                  0x000178          0x4 LONG 0xd810 DEFINED (__AltMI2C2Interrupt)?ABSOLUTE (__AltMI2C2Interrupt):DEFINED (__MI2C2Interrupt)?ABSOLUTE (__MI2C2Interrupt):ABSOLUTE (__DefaultInterrupt)
                  0x00017a          0x4 LONG 0x390 DEFINED (__AltT8Interrupt)?ABSOLUTE (__AltT8Interrupt):DEFINED (__T8Interrupt)?ABSOLUTE (__T8Interrupt):ABSOLUTE (__DefaultInterrupt)
                  0x00017c          0x4 LONG 0x390 DEFINED (__AltT9Interrupt)?ABSOLUTE (__AltT9Interrupt):DEFINED (__T9Interrupt)?ABSOLUTE (__T9Interrupt):ABSOLUTE (__DefaultInterrupt)
                  0x00017e          0x4 LONG 0x1146a DEFINED (__AltINT3Interrupt)?ABSOLUTE (__AltINT3Interrupt):DEFINED (__INT3Interrupt)?ABSOLUTE (__INT3Interrupt):ABSOLUTE (__DefaultInterrupt)
                  0x000180          0x4 LONG 0x390 DEFINED (__AltINT4Interrupt)?ABSOLUTE (__AltINT4Interrupt):DEFINED (__INT4Interrupt)?ABSOLUTE (__INT4Interrupt):ABSOLUTE (__DefaultInterrupt)
                  0x000182          0x4 LONG 0x390 DEFINED (__AltC2RxRdyInterrupt)?ABSOLUTE (__AltC2RxRdyInterrupt):DEFINED (__C2RxRdyInterrupt)?ABSOLUTE (__C2RxRdyInterrupt):ABSOLUTE (__DefaultInterrupt)
                  0x000184          0x4 LONG 0x107b4 DEFINED (__AltC2Interrupt)?ABSOLUTE (__AltC2Interrupt):DEFINED (__C2Interrupt)?ABSOLUTE (__C2Interrupt):ABSOLUTE (__DefaultInterrupt)
                  0x000186          0x4 LONG 0x390 DEFINED (__AltInterrupt57)?ABSOLUTE (__AltInterrupt57):DEFINED (__Interrupt57)?ABSOLUTE (__Interrupt57):ABSOLUTE (__DefaultInterrupt)
                  0x000188          0x4 LONG 0x390 DEFINED (__AltInterrupt58)?ABSOLUTE (__AltInterrupt58):DEFINED (__Interrupt58)?ABSOLUTE (__Interrupt58):ABSOLUTE (__DefaultInterrupt)
                  0x00018a          0x4 LONG 0x390 DEFINED (__AltDCIErrInterrupt)?ABSOLUTE (__AltDCIErrInterrupt):DEFINED (__DCIErrInterrupt)?ABSOLUTE (__DCIErrInterrupt):ABSOLUTE (__DefaultInterrupt)
                  0x00018c          0x4 LONG 0x390 DEFINED (__AltDCIInterrupt)?ABSOLUTE (__AltDCIInterrupt):DEFINED (__DCIInterrupt)?ABSOLUTE (__DCIInterrupt):ABSOLUTE (__DefaultInterrupt)
                  0x00018e          0x4 LONG 0x390 DEFINED (__AltInterrupt61)?ABSOLUTE (__AltInterrupt61):DEFINED (__Interrupt61)?ABSOLUTE (__Interrupt61):ABSOLUTE (__DefaultInterrupt)
                  0x000190          0x4 LONG 0x390 DEFINED (__AltInterrupt62)?ABSOLUTE (__AltInterrupt62):DEFINED (__Interrupt62)?ABSOLUTE (__Interrupt62):ABSOLUTE (__DefaultInterrupt)
                  0x000192          0x4 LONG 0x390 DEFINED (__AltInterrupt63)?ABSOLUTE (__AltInterrupt63):DEFINED (__Interrupt63)?ABSOLUTE (__Interrupt63):ABSOLUTE (__DefaultInterrupt)
                  0x000194          0x4 LONG 0x390 DEFINED (__AltInterrupt64)?ABSOLUTE (__AltInterrupt64):DEFINED (__Interrupt64)?ABSOLUTE (__Interrupt64):ABSOLUTE (__DefaultInterrupt)
                  0x000196          0x4 LONG 0x390 DEFINED (__AltU1ErrInterrupt)?ABSOLUTE (__AltU1ErrInterrupt):DEFINED (__U1ErrInterrupt)?ABSOLUTE (__U1ErrInterrupt):ABSOLUTE (__DefaultInterrupt)
                  0x000198          0x4 LONG 0x390 DEFINED (__AltU2ErrInterrupt)?ABSOLUTE (__AltU2ErrInterrupt):DEFINED (__U2ErrInterrupt)?ABSOLUTE (__U2ErrInterrupt):ABSOLUTE (__DefaultInterrupt)
                  0x00019a          0x4 LONG 0x390 DEFINED (__AltInterrupt67)?ABSOLUTE (__AltInterrupt67):DEFINED (__Interrupt67)?ABSOLUTE (__Interrupt67):ABSOLUTE (__DefaultInterrupt)
                  0x00019c          0x4 LONG 0x390 DEFINED (__AltDMA6Interrupt)?ABSOLUTE (__AltDMA6Interrupt):DEFINED (__DMA6Interrupt)?ABSOLUTE (__DMA6Interrupt):ABSOLUTE (__DefaultInterrupt)
                  0x00019e          0x4 LONG 0x390 DEFINED (__AltDMA7Interrupt)?ABSOLUTE (__AltDMA7Interrupt):DEFINED (__DMA7Interrupt)?ABSOLUTE (__DMA7Interrupt):ABSOLUTE (__DefaultInterrupt)
                  0x0001a0          0x4 LONG 0x390 DEFINED (__AltC1TxReqInterrupt)?ABSOLUTE (__AltC1TxReqInterrupt):DEFINED (__C1TxReqInterrupt)?ABSOLUTE (__C1TxReqInterrupt):ABSOLUTE (__DefaultInterrupt)
                  0x0001a2          0x4 LONG 0x390 DEFINED (__AltC2TxReqInterrupt)?ABSOLUTE (__AltC2TxReqInterrupt):DEFINED (__C2TxReqInterrupt)?ABSOLUTE (__C2TxReqInterrupt):ABSOLUTE (__DefaultInterrupt)
                  0x0001a4          0x4 LONG 0x390 DEFINED (__AltInterrupt72)?ABSOLUTE (__AltInterrupt72):DEFINED (__Interrupt72)?ABSOLUTE (__Interrupt72):ABSOLUTE (__DefaultInterrupt)
                  0x0001a6          0x4 LONG 0x390 DEFINED (__AltInterrupt73)?ABSOLUTE (__AltInterrupt73):DEFINED (__Interrupt73)?ABSOLUTE (__Interrupt73):ABSOLUTE (__DefaultInterrupt)
                  0x0001a8          0x4 LONG 0x390 DEFINED (__AltInterrupt74)?ABSOLUTE (__AltInterrupt74):DEFINED (__Interrupt74)?ABSOLUTE (__Interrupt74):ABSOLUTE (__DefaultInterrupt)
                  0x0001aa          0x4 LONG 0x390 DEFINED (__AltInterrupt75)?ABSOLUTE (__AltInterrupt75):DEFINED (__Interrupt75)?ABSOLUTE (__Interrupt75):ABSOLUTE (__DefaultInterrupt)
                  0x0001ac          0x4 LONG 0x390 DEFINED (__AltInterrupt76)?ABSOLUTE (__AltInterrupt76):DEFINED (__Interrupt76)?ABSOLUTE (__Interrupt76):ABSOLUTE (__DefaultInterrupt)
                  0x0001ae          0x4 LONG 0x390 DEFINED (__AltInterrupt77)?ABSOLUTE (__AltInterrupt77):DEFINED (__Interrupt77)?ABSOLUTE (__Interrupt77):ABSOLUTE (__DefaultInterrupt)
                  0x0001b0          0x4 LONG 0x390 DEFINED (__AltInterrupt78)?ABSOLUTE (__AltInterrupt78):DEFINED (__Interrupt78)?ABSOLUTE (__Interrupt78):ABSOLUTE (__DefaultInterrupt)
                  0x0001b2          0x4 LONG 0x390 DEFINED (__AltInterrupt79)?ABSOLUTE (__AltInterrupt79):DEFINED (__Interrupt79)?ABSOLUTE (__Interrupt79):ABSOLUTE (__DefaultInterrupt)
                  0x0001b4          0x4 LONG 0x390 DEFINED (__AltInterrupt80)?ABSOLUTE (__AltInterrupt80):DEFINED (__Interrupt80)?ABSOLUTE (__Interrupt80):ABSOLUTE (__DefaultInterrupt)
                  0x0001b6          0x4 LONG 0x390 DEFINED (__AltInterrupt81)?ABSOLUTE (__AltInterrupt81):DEFINED (__Interrupt81)?ABSOLUTE (__Interrupt81):ABSOLUTE (__DefaultInterrupt)
                  0x0001b8          0x4 LONG 0x390 DEFINED (__AltInterrupt82)?ABSOLUTE (__AltInterrupt82):DEFINED (__Interrupt82)?ABSOLUTE (__Interrupt82):ABSOLUTE (__DefaultInterrupt)
                  0x0001ba          0x4 LONG 0x390 DEFINED (__AltInterrupt83)?ABSOLUTE (__AltInterrupt83):DEFINED (__Interrupt83)?ABSOLUTE (__Interrupt83):ABSOLUTE (__DefaultInterrupt)
                  0x0001bc          0x4 LONG 0x390 DEFINED (__AltInterrupt84)?ABSOLUTE (__AltInterrupt84):DEFINED (__Interrupt84)?ABSOLUTE (__Interrupt84):ABSOLUTE (__DefaultInterrupt)
                  0x0001be          0x4 LONG 0x390 DEFINED (__AltInterrupt85)?ABSOLUTE (__AltInterrupt85):DEFINED (__Interrupt85)?ABSOLUTE (__Interrupt85):ABSOLUTE (__DefaultInterrupt)
                  0x0001c0          0x4 LONG 0x390 DEFINED (__AltInterrupt86)?ABSOLUTE (__AltInterrupt86):DEFINED (__Interrupt86)?ABSOLUTE (__Interrupt86):ABSOLUTE (__DefaultInterrupt)
                  0x0001c2          0x4 LONG 0x390 DEFINED (__AltInterrupt87)?ABSOLUTE (__AltInterrupt87):DEFINED (__Interrupt87)?ABSOLUTE (__Interrupt87):ABSOLUTE (__DefaultInterrupt)
                  0x0001c4          0x4 LONG 0x390 DEFINED (__AltInterrupt88)?ABSOLUTE (__AltInterrupt88):DEFINED (__Interrupt88)?ABSOLUTE (__Interrupt88):ABSOLUTE (__DefaultInterrupt)
                  0x0001c6          0x4 LONG 0x390 DEFINED (__AltInterrupt89)?ABSOLUTE (__AltInterrupt89):DEFINED (__Interrupt89)?ABSOLUTE (__Interrupt89):ABSOLUTE (__DefaultInterrupt)
                  0x0001c8          0x4 LONG 0x390 DEFINED (__AltInterrupt90)?ABSOLUTE (__AltInterrupt90):DEFINED (__Interrupt90)?ABSOLUTE (__Interrupt90):ABSOLUTE (__DefaultInterrupt)
                  0x0001ca          0x4 LONG 0x390 DEFINED (__AltInterrupt91)?ABSOLUTE (__AltInterrupt91):DEFINED (__Interrupt91)?ABSOLUTE (__Interrupt91):ABSOLUTE (__DefaultInterrupt)
                  0x0001cc          0x4 LONG 0x390 DEFINED (__AltInterrupt92)?ABSOLUTE (__AltInterrupt92):DEFINED (__Interrupt92)?ABSOLUTE (__Interrupt92):ABSOLUTE (__DefaultInterrupt)
                  0x0001ce          0x4 LONG 0x390 DEFINED (__AltInterrupt93)?ABSOLUTE (__AltInterrupt93):DEFINED (__Interrupt93)?ABSOLUTE (__Interrupt93):ABSOLUTE (__DefaultInterrupt)
                  0x0001d0          0x4 LONG 0x390 DEFINED (__AltInterrupt94)?ABSOLUTE (__AltInterrupt94):DEFINED (__Interrupt94)?ABSOLUTE (__Interrupt94):ABSOLUTE (__DefaultInterrupt)
                  0x0001d2          0x4 LONG 0x390 DEFINED (__AltInterrupt95)?ABSOLUTE (__AltInterrupt95):DEFINED (__Interrupt95)?ABSOLUTE (__Interrupt95):ABSOLUTE (__DefaultInterrupt)
                  0x0001d4          0x4 LONG 0x390 DEFINED (__AltInterrupt96)?ABSOLUTE (__AltInterrupt96):DEFINED (__Interrupt96)?ABSOLUTE (__Interrupt96):ABSOLUTE (__DefaultInterrupt)
                  0x0001d6          0x4 LONG 0x390 DEFINED (__AltInterrupt97)?ABSOLUTE (__AltInterrupt97):DEFINED (__Interrupt97)?ABSOLUTE (__Interrupt97):ABSOLUTE (__DefaultInterrupt)
                  0x0001d8          0x4 LONG 0x390 DEFINED (__AltInterrupt98)?ABSOLUTE (__AltInterrupt98):DEFINED (__Interrupt98)?ABSOLUTE (__Interrupt98):ABSOLUTE (__DefaultInterrupt)
                  0x0001da          0x4 LONG 0x390 DEFINED (__AltInterrupt99)?ABSOLUTE (__AltInterrupt99):DEFINED (__Interrupt99)?ABSOLUTE (__Interrupt99):ABSOLUTE (__DefaultInterrupt)
                  0x0001dc          0x4 LONG 0x390 DEFINED (__AltInterrupt100)?ABSOLUTE (__AltInterrupt100):DEFINED (__Interrupt100)?ABSOLUTE (__Interrupt100):ABSOLUTE (__DefaultInterrupt)
                  0x0001de          0x4 LONG 0x390 DEFINED (__AltInterrupt101)?ABSOLUTE (__AltInterrupt101):DEFINED (__Interrupt101)?ABSOLUTE (__Interrupt101):ABSOLUTE (__DefaultInterrupt)
                  0x0001e0          0x4 LONG 0x390 DEFINED (__AltInterrupt102)?ABSOLUTE (__AltInterrupt102):DEFINED (__Interrupt102)?ABSOLUTE (__Interrupt102):ABSOLUTE (__DefaultInterrupt)
                  0x0001e2          0x4 LONG 0x390 DEFINED (__AltInterrupt103)?ABSOLUTE (__AltInterrupt103):DEFINED (__Interrupt103)?ABSOLUTE (__Interrupt103):ABSOLUTE (__DefaultInterrupt)
                  0x0001e4          0x4 LONG 0x390 DEFINED (__AltInterrupt104)?ABSOLUTE (__AltInterrupt104):DEFINED (__Interrupt104)?ABSOLUTE (__Interrupt104):ABSOLUTE (__DefaultInterrupt)
                  0x0001e6          0x4 LONG 0x390 DEFINED (__AltInterrupt105)?ABSOLUTE (__AltInterrupt105):DEFINED (__Interrupt105)?ABSOLUTE (__Interrupt105):ABSOLUTE (__DefaultInterrupt)
                  0x0001e8          0x4 LONG 0x390 DEFINED (__AltInterrupt106)?ABSOLUTE (__AltInterrupt106):DEFINED (__Interrupt106)?ABSOLUTE (__Interrupt106):ABSOLUTE (__DefaultInterrupt)
                  0x0001ea          0x4 LONG 0x390 DEFINED (__AltInterrupt107)?ABSOLUTE (__AltInterrupt107):DEFINED (__Interrupt107)?ABSOLUTE (__Interrupt107):ABSOLUTE (__DefaultInterrupt)
                  0x0001ec          0x4 LONG 0x390 DEFINED (__AltInterrupt108)?ABSOLUTE (__AltInterrupt108):DEFINED (__Interrupt108)?ABSOLUTE (__Interrupt108):ABSOLUTE (__DefaultInterrupt)
                  0x0001ee          0x4 LONG 0x390 DEFINED (__AltInterrupt109)?ABSOLUTE (__AltInterrupt109):DEFINED (__Interrupt109)?ABSOLUTE (__Interrupt109):ABSOLUTE (__DefaultInterrupt)
                  0x0001f0          0x4 LONG 0x390 DEFINED (__AltInterrupt110)?ABSOLUTE (__AltInterrupt110):DEFINED (__Interrupt110)?ABSOLUTE (__Interrupt110):ABSOLUTE (__DefaultInterrupt)
                  0x0001f2          0x4 LONG 0x390 DEFINED (__AltInterrupt111)?ABSOLUTE (__AltInterrupt111):DEFINED (__Interrupt111)?ABSOLUTE (__Interrupt111):ABSOLUTE (__DefaultInterrupt)
                  0x0001f4          0x4 LONG 0x390 DEFINED (__AltInterrupt112)?ABSOLUTE (__AltInterrupt112):DEFINED (__Interrupt112)?ABSOLUTE (__Interrupt112):ABSOLUTE (__DefaultInterrupt)
                  0x0001f6          0x4 LONG 0x390 DEFINED (__AltInterrupt113)?ABSOLUTE (__AltInterrupt113):DEFINED (__Interrupt113)?ABSOLUTE (__Interrupt113):ABSOLUTE (__DefaultInterrupt)
                  0x0001f8          0x4 LONG 0x390 DEFINED (__AltInterrupt114)?ABSOLUTE (__AltInterrupt114):DEFINED (__Interrupt114)?ABSOLUTE (__Interrupt114):ABSOLUTE (__DefaultInterrupt)
                  0x0001fa          0x4 LONG 0x390 DEFINED (__AltInterrupt115)?ABSOLUTE (__AltInterrupt115):DEFINED (__Interrupt115)?ABSOLUTE (__Interrupt115):ABSOLUTE (__DefaultInterrupt)
                  0x0001fc          0x4 LONG 0x390 DEFINED (__AltInterrupt116)?ABSOLUTE (__AltInterrupt116):DEFINED (__Interrupt116)?ABSOLUTE (__Interrupt116):ABSOLUTE (__DefaultInterrupt)
                  0x0001fe          0x4 LONG 0x390 DEFINED (__AltInterrupt117)?ABSOLUTE (__AltInterrupt117):DEFINED (__Interrupt117)?ABSOLUTE (__Interrupt117):ABSOLUTE (__DefaultInterrupt)
                    0x0000                  WREG0 = 0x0
                    0x0000                  _WREG0 = 0x0
                    0x0002                  WREG1 = 0x2
                    0x0002                  _WREG1 = 0x2
                    0x0004                  WREG2 = 0x4
                    0x0004                  _WREG2 = 0x4
                    0x0006                  WREG3 = 0x6
                    0x0006                  _WREG3 = 0x6
                    0x0008                  WREG4 = 0x8
                    0x0008                  _WREG4 = 0x8
                    0x000a                  WREG5 = 0xa
                    0x000a                  _WREG5 = 0xa
                    0x000c                  WREG6 = 0xc
                    0x000c                  _WREG6 = 0xc
                    0x000e                  WREG7 = 0xe
                    0x000e                  _WREG7 = 0xe
                    0x0010                  WREG8 = 0x10
                    0x0010                  _WREG8 = 0x10
                    0x0012                  WREG9 = 0x12
                    0x0012                  _WREG9 = 0x12
                    0x0014                  WREG10 = 0x14
                    0x0014                  _WREG10 = 0x14
                    0x0016                  WREG11 = 0x16
                    0x0016                  _WREG11 = 0x16
                    0x0018                  WREG12 = 0x18
                    0x0018                  _WREG12 = 0x18
                    0x001a                  WREG13 = 0x1a
                    0x001a                  _WREG13 = 0x1a
                    0x001c                  WREG14 = 0x1c
                    0x001c                  _WREG14 = 0x1c
                    0x001e                  WREG15 = 0x1e
                    0x001e                  _WREG15 = 0x1e
                    0x0020                  SPLIM = 0x20
                    0x0020                  _SPLIM = 0x20
                    0x0022                  ACCAL = 0x22
                    0x0022                  _ACCAL = 0x22
                    0x0024                  ACCAH = 0x24
                    0x0024                  _ACCAH = 0x24
                    0x0026                  ACCAU = 0x26
                    0x0026                  _ACCAU = 0x26
                    0x0028                  ACCBL = 0x28
                    0x0028                  _ACCBL = 0x28
                    0x002a                  ACCBH = 0x2a
                    0x002a                  _ACCBH = 0x2a
                    0x002c                  ACCBU = 0x2c
                    0x002c                  _ACCBU = 0x2c
                    0x002e                  PCL = 0x2e
                    0x002e                  _PCL = 0x2e
                    0x0030                  PCH = 0x30
                    0x0030                  _PCH = 0x30
                    0x0032                  TBLPAG = 0x32
                    0x0032                  _TBLPAG = 0x32
                    0x0034                  PSVPAG = 0x34
                    0x0034                  _PSVPAG = 0x34
                    0x0036                  RCOUNT = 0x36
                    0x0036                  _RCOUNT = 0x36
                    0x0038                  DCOUNT = 0x38
                    0x0038                  _DCOUNT = 0x38
                    0x003a                  DOSTARTL = 0x3a
                    0x003a                  _DOSTARTL = 0x3a
                    0x003c                  DOSTARTH = 0x3c
                    0x003c                  _DOSTARTH = 0x3c
                    0x003e                  DOENDL = 0x3e
                    0x003e                  _DOENDL = 0x3e
                    0x0040                  DOENDH = 0x40
                    0x0040                  _DOENDH = 0x40
                    0x0042                  SR = 0x42
                    0x0042                  _SR = 0x42
                    0x0042                  _SRbits = 0x42
                    0x0044                  CORCON = 0x44
                    0x0044                  _CORCON = 0x44
                    0x0044                  _CORCONbits = 0x44
                    0x0046                  MODCON = 0x46
                    0x0046                  _MODCON = 0x46
                    0x0046                  _MODCONbits = 0x46
                    0x0048                  XMODSRT = 0x48
                    0x0048                  _XMODSRT = 0x48
                    0x004a                  XMODEND = 0x4a
                    0x004a                  _XMODEND = 0x4a
                    0x004c                  YMODSRT = 0x4c
                    0x004c                  _YMODSRT = 0x4c
                    0x004e                  YMODEND = 0x4e
                    0x004e                  _YMODEND = 0x4e
                    0x0050                  XBREV = 0x50
                    0x0050                  _XBREV = 0x50
                    0x0050                  _XBREVbits = 0x50
                    0x0052                  DISICNT = 0x52
                    0x0052                  _DISICNT = 0x52
                    0x0060                  CNEN1 = 0x60
                    0x0060                  _CNEN1 = 0x60
                    0x0060                  _CNEN1bits = 0x60
                    0x0062                  CNEN2 = 0x62
                    0x0062                  _CNEN2 = 0x62
                    0x0062                  _CNEN2bits = 0x62
                    0x0068                  CNPU1 = 0x68
                    0x0068                  _CNPU1 = 0x68
                    0x0068                  _CNPU1bits = 0x68
                    0x006a                  CNPU2 = 0x6a
                    0x006a                  _CNPU2 = 0x6a
                    0x006a                  _CNPU2bits = 0x6a
                    0x0080                  INTCON1 = 0x80
                    0x0080                  _INTCON1 = 0x80
                    0x0080                  _INTCON1bits = 0x80
                    0x0082                  INTCON2 = 0x82
                    0x0082                  _INTCON2 = 0x82
                    0x0082                  _INTCON2bits = 0x82
                    0x0084                  IFS0 = 0x84
                    0x0084                  _IFS0 = 0x84
                    0x0084                  _IFS0bits = 0x84
                    0x0086                  IFS1 = 0x86
                    0x0086                  _IFS1 = 0x86
                    0x0086                  _IFS1bits = 0x86
                    0x0088                  IFS2 = 0x88
                    0x0088                  _IFS2 = 0x88
                    0x0088                  _IFS2bits = 0x88
                    0x008a                  IFS3 = 0x8a
                    0x008a                  _IFS3 = 0x8a
                    0x008a                  _IFS3bits = 0x8a
                    0x008c                  IFS4 = 0x8c
                    0x008c                  _IFS4 = 0x8c
                    0x008c                  _IFS4bits = 0x8c
                    0x0094                  IEC0 = 0x94
                    0x0094                  _IEC0 = 0x94
                    0x0094                  _IEC0bits = 0x94
                    0x0096                  IEC1 = 0x96
                    0x0096                  _IEC1 = 0x96
                    0x0096                  _IEC1bits = 0x96
                    0x0098                  IEC2 = 0x98
                    0x0098                  _IEC2 = 0x98
                    0x0098                  _IEC2bits = 0x98
                    0x009a                  IEC3 = 0x9a
                    0x009a                  _IEC3 = 0x9a
                    0x009a                  _IEC3bits = 0x9a
                    0x009c                  IEC4 = 0x9c
                    0x009c                  _IEC4 = 0x9c
                    0x009c                  _IEC4bits = 0x9c
                    0x00a4                  IPC0 = 0xa4
                    0x00a4                  _IPC0 = 0xa4
                    0x00a4                  _IPC0bits = 0xa4
                    0x00a6                  IPC1 = 0xa6
                    0x00a6                  _IPC1 = 0xa6
                    0x00a6                  _IPC1bits = 0xa6
                    0x00a8                  IPC2 = 0xa8
                    0x00a8                  _IPC2 = 0xa8
                    0x00a8                  _IPC2bits = 0xa8
                    0x00aa                  IPC3 = 0xaa
                    0x00aa                  _IPC3 = 0xaa
                    0x00aa                  _IPC3bits = 0xaa
                    0x00ac                  IPC4 = 0xac
                    0x00ac                  _IPC4 = 0xac
                    0x00ac                  _IPC4bits = 0xac
                    0x00ae                  IPC5 = 0xae
                    0x00ae                  _IPC5 = 0xae
                    0x00ae                  _IPC5bits = 0xae
                    0x00b0                  IPC6 = 0xb0
                    0x00b0                  _IPC6 = 0xb0
                    0x00b0                  _IPC6bits = 0xb0
                    0x00b2                  IPC7 = 0xb2
                    0x00b2                  _IPC7 = 0xb2
                    0x00b2                  _IPC7bits = 0xb2
                    0x00b4                  IPC8 = 0xb4
                    0x00b4                  _IPC8 = 0xb4
                    0x00b4                  _IPC8bits = 0xb4
                    0x00b6                  IPC9 = 0xb6
                    0x00b6                  _IPC9 = 0xb6
                    0x00b6                  _IPC9bits = 0xb6
                    0x00b8                  IPC10 = 0xb8
                    0x00b8                  _IPC10 = 0xb8
                    0x00b8                  _IPC10bits = 0xb8
                    0x00ba                  IPC11 = 0xba
                    0x00ba                  _IPC11 = 0xba
                    0x00ba                  _IPC11bits = 0xba
                    0x00bc                  IPC12 = 0xbc
                    0x00bc                  _IPC12 = 0xbc
                    0x00bc                  _IPC12bits = 0xbc
                    0x00be                  IPC13 = 0xbe
                    0x00be                  _IPC13 = 0xbe
                    0x00be                  _IPC13bits = 0xbe
                    0x00c0                  IPC14 = 0xc0
                    0x00c0                  _IPC14 = 0xc0
                    0x00c0                  _IPC14bits = 0xc0
                    0x00c2                  IPC15 = 0xc2
                    0x00c2                  _IPC15 = 0xc2
                    0x00c2                  _IPC15bits = 0xc2
                    0x00c4                  IPC16 = 0xc4
                    0x00c4                  _IPC16 = 0xc4
                    0x00c4                  _IPC16bits = 0xc4
                    0x00c6                  IPC17 = 0xc6
                    0x00c6                  _IPC17 = 0xc6
                    0x00c6                  _IPC17bits = 0xc6
                    0x00e0                  INTTREG = 0xe0
                    0x00e0                  _INTTREG = 0xe0
                    0x00e0                  _INTTREGbits = 0xe0
                    0x0100                  TMR1 = 0x100
                    0x0100                  _TMR1 = 0x100
                    0x0102                  PR1 = 0x102
                    0x0102                  _PR1 = 0x102
                    0x0104                  T1CON = 0x104
                    0x0104                  _T1CON = 0x104
                    0x0104                  _T1CONbits = 0x104
                    0x0106                  TMR2 = 0x106
                    0x0106                  _TMR2 = 0x106
                    0x0108                  TMR3HLD = 0x108
                    0x0108                  _TMR3HLD = 0x108
                    0x010a                  TMR3 = 0x10a
                    0x010a                  _TMR3 = 0x10a
                    0x010c                  PR2 = 0x10c
                    0x010c                  _PR2 = 0x10c
                    0x010e                  PR3 = 0x10e
                    0x010e                  _PR3 = 0x10e
                    0x0110                  T2CON = 0x110
                    0x0110                  _T2CON = 0x110
                    0x0110                  _T2CONbits = 0x110
                    0x0112                  T3CON = 0x112
                    0x0112                  _T3CON = 0x112
                    0x0112                  _T3CONbits = 0x112
                    0x0114                  TMR4 = 0x114
                    0x0114                  _TMR4 = 0x114
                    0x0116                  TMR5HLD = 0x116
                    0x0116                  _TMR5HLD = 0x116
                    0x0118                  TMR5 = 0x118
                    0x0118                  _TMR5 = 0x118
                    0x011a                  PR4 = 0x11a
                    0x011a                  _PR4 = 0x11a
                    0x011c                  PR5 = 0x11c
                    0x011c                  _PR5 = 0x11c
                    0x011e                  T4CON = 0x11e
                    0x011e                  _T4CON = 0x11e
                    0x011e                  _T4CONbits = 0x11e
                    0x0120                  T5CON = 0x120
                    0x0120                  _T5CON = 0x120
                    0x0120                  _T5CONbits = 0x120
                    0x0122                  TMR6 = 0x122
                    0x0122                  _TMR6 = 0x122
                    0x0124                  TMR7HLD = 0x124
                    0x0124                  _TMR7HLD = 0x124
                    0x0126                  TMR7 = 0x126
                    0x0126                  _TMR7 = 0x126
                    0x0128                  PR6 = 0x128
                    0x0128                  _PR6 = 0x128
                    0x012a                  PR7 = 0x12a
                    0x012a                  _PR7 = 0x12a
                    0x012c                  T6CON = 0x12c
                    0x012c                  _T6CON = 0x12c
                    0x012c                  _T6CONbits = 0x12c
                    0x012e                  T7CON = 0x12e
                    0x012e                  _T7CON = 0x12e
                    0x012e                  _T7CONbits = 0x12e
                    0x0130                  TMR8 = 0x130
                    0x0130                  _TMR8 = 0x130
                    0x0132                  TMR9HLD = 0x132
                    0x0132                  _TMR9HLD = 0x132
                    0x0134                  TMR9 = 0x134
                    0x0134                  _TMR9 = 0x134
                    0x0136                  PR8 = 0x136
                    0x0136                  _PR8 = 0x136
                    0x0138                  PR9 = 0x138
                    0x0138                  _PR9 = 0x138
                    0x013a                  T8CON = 0x13a
                    0x013a                  _T8CON = 0x13a
                    0x013a                  _T8CONbits = 0x13a
                    0x013c                  T9CON = 0x13c
                    0x013c                  _T9CON = 0x13c
                    0x013c                  _T9CONbits = 0x13c
                    0x0140                  IC1BUF = 0x140
                    0x0140                  _IC1BUF = 0x140
                    0x0142                  IC1CON = 0x142
                    0x0142                  _IC1CON = 0x142
                    0x0142                  _IC1CONbits = 0x142
                    0x0144                  IC2BUF = 0x144
                    0x0144                  _IC2BUF = 0x144
                    0x0146                  IC2CON = 0x146
                    0x0146                  _IC2CON = 0x146
                    0x0146                  _IC2CONbits = 0x146
                    0x0148                  IC3BUF = 0x148
                    0x0148                  _IC3BUF = 0x148
                    0x014a                  IC3CON = 0x14a
                    0x014a                  _IC3CON = 0x14a
                    0x014a                  _IC3CONbits = 0x14a
                    0x014c                  IC4BUF = 0x14c
                    0x014c                  _IC4BUF = 0x14c
                    0x014e                  IC4CON = 0x14e
                    0x014e                  _IC4CON = 0x14e
                    0x014e                  _IC4CONbits = 0x14e
                    0x0150                  IC5BUF = 0x150
                    0x0150                  _IC5BUF = 0x150
                    0x0152                  IC5CON = 0x152
                    0x0152                  _IC5CON = 0x152
                    0x0152                  _IC5CONbits = 0x152
                    0x0154                  IC6BUF = 0x154
                    0x0154                  _IC6BUF = 0x154
                    0x0156                  IC6CON = 0x156
                    0x0156                  _IC6CON = 0x156
                    0x0156                  _IC6CONbits = 0x156
                    0x0158                  IC7BUF = 0x158
                    0x0158                  _IC7BUF = 0x158
                    0x015a                  IC7CON = 0x15a
                    0x015a                  _IC7CON = 0x15a
                    0x015a                  _IC7CONbits = 0x15a
                    0x015c                  IC8BUF = 0x15c
                    0x015c                  _IC8BUF = 0x15c
                    0x015e                  IC8CON = 0x15e
                    0x015e                  _IC8CON = 0x15e
                    0x015e                  _IC8CONbits = 0x15e
                    0x0180                  OC1RS = 0x180
                    0x0180                  _OC1RS = 0x180
                    0x0182                  OC1R = 0x182
                    0x0182                  _OC1R = 0x182
                    0x0184                  OC1CON = 0x184
                    0x0184                  _OC1CON = 0x184
                    0x0184                  _OC1CONbits = 0x184
                    0x0186                  OC2RS = 0x186
                    0x0186                  _OC2RS = 0x186
                    0x0188                  OC2R = 0x188
                    0x0188                  _OC2R = 0x188
                    0x018a                  OC2CON = 0x18a
                    0x018a                  _OC2CON = 0x18a
                    0x018a                  _OC2CONbits = 0x18a
                    0x018c                  OC3RS = 0x18c
                    0x018c                  _OC3RS = 0x18c
                    0x018e                  OC3R = 0x18e
                    0x018e                  _OC3R = 0x18e
                    0x0190                  OC3CON = 0x190
                    0x0190                  _OC3CON = 0x190
                    0x0190                  _OC3CONbits = 0x190
                    0x0192                  OC4RS = 0x192
                    0x0192                  _OC4RS = 0x192
                    0x0194                  OC4R = 0x194
                    0x0194                  _OC4R = 0x194
                    0x0196                  OC4CON = 0x196
                    0x0196                  _OC4CON = 0x196
                    0x0196                  _OC4CONbits = 0x196
                    0x0198                  OC5RS = 0x198
                    0x0198                  _OC5RS = 0x198
                    0x019a                  OC5R = 0x19a
                    0x019a                  _OC5R = 0x19a
                    0x019c                  OC5CON = 0x19c
                    0x019c                  _OC5CON = 0x19c
                    0x019c                  _OC5CONbits = 0x19c
                    0x019e                  OC6RS = 0x19e
                    0x019e                  _OC6RS = 0x19e
                    0x01a0                  OC6R = 0x1a0
                    0x01a0                  _OC6R = 0x1a0
                    0x01a2                  OC6CON = 0x1a2
                    0x01a2                  _OC6CON = 0x1a2
                    0x01a2                  _OC6CONbits = 0x1a2
                    0x01a4                  OC7RS = 0x1a4
                    0x01a4                  _OC7RS = 0x1a4
                    0x01a6                  OC7R = 0x1a6
                    0x01a6                  _OC7R = 0x1a6
                    0x01a8                  OC7CON = 0x1a8
                    0x01a8                  _OC7CON = 0x1a8
                    0x01a8                  _OC7CONbits = 0x1a8
                    0x01aa                  OC8RS = 0x1aa
                    0x01aa                  _OC8RS = 0x1aa
                    0x01ac                  OC8R = 0x1ac
                    0x01ac                  _OC8R = 0x1ac
                    0x01ae                  OC8CON = 0x1ae
                    0x01ae                  _OC8CON = 0x1ae
                    0x01ae                  _OC8CONbits = 0x1ae
                    0x0200                  I2C1RCV = 0x200
                    0x0200                  _I2C1RCV = 0x200
                    0x0200                  I2CRCV = 0x200
                    0x0200                  _I2CRCV = 0x200
                    0x0202                  I2C1TRN = 0x202
                    0x0202                  _I2C1TRN = 0x202
                    0x0202                  I2CTRN = 0x202
                    0x0202                  _I2CTRN = 0x202
                    0x0204                  I2C1BRG = 0x204
                    0x0204                  _I2C1BRG = 0x204
                    0x0206                  I2C1CON = 0x206
                    0x0206                  _I2C1CON = 0x206
                    0x0206                  _I2C1CONbits = 0x206
                    0x0206                  I2CCON = 0x206
                    0x0206                  _I2CCON = 0x206
                    0x0206                  _I2CCONbits = 0x206
                    0x0208                  I2C1STAT = 0x208
                    0x0208                  _I2C1STAT = 0x208
                    0x0208                  _I2C1STATbits = 0x208
                    0x0208                  I2CSTAT = 0x208
                    0x0208                  _I2CSTAT = 0x208
                    0x0208                  _I2CSTATbits = 0x208
                    0x020a                  I2C1ADD = 0x20a
                    0x020a                  _I2C1ADD = 0x20a
                    0x020a                  I2CADD = 0x20a
                    0x020a                  _I2CADD = 0x20a
                    0x020c                  I2C1MSK = 0x20c
                    0x020c                  _I2C1MSK = 0x20c
                    0x0210                  I2C2RCV = 0x210
                    0x0210                  _I2C2RCV = 0x210
                    0x0212                  I2C2TRN = 0x212
                    0x0212                  _I2C2TRN = 0x212
                    0x0214                  I2C2BRG = 0x214
                    0x0214                  _I2C2BRG = 0x214
                    0x0216                  I2C2CON = 0x216
                    0x0216                  _I2C2CON = 0x216
                    0x0216                  _I2C2CONbits = 0x216
                    0x0218                  I2C2STAT = 0x218
                    0x0218                  _I2C2STAT = 0x218
                    0x0218                  _I2C2STATbits = 0x218
                    0x021a                  I2C2ADD = 0x21a
                    0x021a                  _I2C2ADD = 0x21a
                    0x021c                  I2C2MSK = 0x21c
                    0x021c                  _I2C2MSK = 0x21c
                    0x0220                  U1MODE = 0x220
                    0x0220                  _U1MODE = 0x220
                    0x0220                  _U1MODEbits = 0x220
                    0x0222                  U1STA = 0x222
                    0x0222                  _U1STA = 0x222
                    0x0222                  _U1STAbits = 0x222
                    0x0224                  U1TXREG = 0x224
                    0x0224                  _U1TXREG = 0x224
                    0x0224                  _U1TXREGbits = 0x224
                    0x0226                  U1RXREG = 0x226
                    0x0226                  _U1RXREG = 0x226
                    0x0226                  _U1RXREGbits = 0x226
                    0x0228                  U1BRG = 0x228
                    0x0228                  _U1BRG = 0x228
                    0x0230                  U2MODE = 0x230
                    0x0230                  _U2MODE = 0x230
                    0x0230                  _U2MODEbits = 0x230
                    0x0232                  U2STA = 0x232
                    0x0232                  _U2STA = 0x232
                    0x0232                  _U2STAbits = 0x232
                    0x0234                  U2TXREG = 0x234
                    0x0234                  _U2TXREG = 0x234
                    0x0234                  _U2TXREGbits = 0x234
                    0x0236                  U2RXREG = 0x236
                    0x0236                  _U2RXREG = 0x236
                    0x0236                  _U2RXREGbits = 0x236
                    0x0238                  U2BRG = 0x238
                    0x0238                  _U2BRG = 0x238
                    0x0240                  SPI1STAT = 0x240
                    0x0240                  _SPI1STAT = 0x240
                    0x0240                  _SPI1STATbits = 0x240
                    0x0242                  SPI1CON1 = 0x242
                    0x0242                  _SPI1CON1 = 0x242
                    0x0242                  _SPI1CON1bits = 0x242
                    0x0244                  SPI1CON2 = 0x244
                    0x0244                  _SPI1CON2 = 0x244
                    0x0244                  _SPI1CON2bits = 0x244
                    0x0248                  SPI1BUF = 0x248
                    0x0248                  _SPI1BUF = 0x248
                    0x0260                  SPI2STAT = 0x260
                    0x0260                  _SPI2STAT = 0x260
                    0x0260                  _SPI2STATbits = 0x260
                    0x0262                  SPI2CON1 = 0x262
                    0x0262                  _SPI2CON1 = 0x262
                    0x0262                  _SPI2CON1bits = 0x262
                    0x0264                  SPI2CON2 = 0x264
                    0x0264                  _SPI2CON2 = 0x264
                    0x0264                  _SPI2CON2bits = 0x264
                    0x0268                  SPI2BUF = 0x268
                    0x0268                  _SPI2BUF = 0x268
                    0x0280                  DCICON1 = 0x280
                    0x0280                  _DCICON1 = 0x280
                    0x0280                  _DCICON1bits = 0x280
                    0x0282                  DCICON2 = 0x282
                    0x0282                  _DCICON2 = 0x282
                    0x0282                  _DCICON2bits = 0x282
                    0x0284                  DCICON3 = 0x284
                    0x0284                  _DCICON3 = 0x284
                    0x0284                  _DCICON3bits = 0x284
                    0x0286                  DCISTAT = 0x286
                    0x0286                  _DCISTAT = 0x286
                    0x0286                  _DCISTATbits = 0x286
                    0x0288                  TSCON = 0x288
                    0x0288                  _TSCON = 0x288
                    0x0288                  _TSCONbits = 0x288
                    0x028c                  RSCON = 0x28c
                    0x028c                  _RSCON = 0x28c
                    0x028c                  _RSCONbits = 0x28c
                    0x0290                  RXBUF0 = 0x290
                    0x0290                  _RXBUF0 = 0x290
                    0x0292                  RXBUF1 = 0x292
                    0x0292                  _RXBUF1 = 0x292
                    0x0294                  RXBUF2 = 0x294
                    0x0294                  _RXBUF2 = 0x294
                    0x0296                  RXBUF3 = 0x296
                    0x0296                  _RXBUF3 = 0x296
                    0x0298                  TXBUF0 = 0x298
                    0x0298                  _TXBUF0 = 0x298
                    0x029a                  TXBUF1 = 0x29a
                    0x029a                  _TXBUF1 = 0x29a
                    0x029c                  TXBUF2 = 0x29c
                    0x029c                  _TXBUF2 = 0x29c
                    0x029e                  TXBUF3 = 0x29e
                    0x029e                  _TXBUF3 = 0x29e
                    0x02c0                  TRISA = 0x2c0
                    0x02c0                  _TRISA = 0x2c0
                    0x02c0                  _TRISAbits = 0x2c0
                    0x02c2                  PORTA = 0x2c2
                    0x02c2                  _PORTA = 0x2c2
                    0x02c2                  _PORTAbits = 0x2c2
                    0x02c4                  LATA = 0x2c4
                    0x02c4                  _LATA = 0x2c4
                    0x02c4                  _LATAbits = 0x2c4
                    0x02c6                  TRISB = 0x2c6
                    0x02c6                  _TRISB = 0x2c6
                    0x02c6                  _TRISBbits = 0x2c6
                    0x02c8                  PORTB = 0x2c8
                    0x02c8                  _PORTB = 0x2c8
                    0x02c8                  _PORTBbits = 0x2c8
                    0x02ca                  LATB = 0x2ca
                    0x02ca                  _LATB = 0x2ca
                    0x02ca                  _LATBbits = 0x2ca
                    0x02cc                  TRISC = 0x2cc
                    0x02cc                  _TRISC = 0x2cc
                    0x02cc                  _TRISCbits = 0x2cc
                    0x02ce                  PORTC = 0x2ce
                    0x02ce                  _PORTC = 0x2ce
                    0x02ce                  _PORTCbits = 0x2ce
                    0x02d0                  LATC = 0x2d0
                    0x02d0                  _LATC = 0x2d0
                    0x02d0                  _LATCbits = 0x2d0
                    0x02d2                  TRISD = 0x2d2
                    0x02d2                  _TRISD = 0x2d2
                    0x02d2                  _TRISDbits = 0x2d2
                    0x02d4                  PORTD = 0x2d4
                    0x02d4                  _PORTD = 0x2d4
                    0x02d4                  _PORTDbits = 0x2d4
                    0x02d6                  LATD = 0x2d6
                    0x02d6                  _LATD = 0x2d6
                    0x02d6                  _LATDbits = 0x2d6
                    0x02d8                  TRISE = 0x2d8
                    0x02d8                  _TRISE = 0x2d8
                    0x02d8                  _TRISEbits = 0x2d8
                    0x02da                  PORTE = 0x2da
                    0x02da                  _PORTE = 0x2da
                    0x02da                  _PORTEbits = 0x2da
                    0x02dc                  LATE = 0x2dc
                    0x02dc                  _LATE = 0x2dc
                    0x02dc                  _LATEbits = 0x2dc
                    0x02de                  TRISF = 0x2de
                    0x02de                  _TRISF = 0x2de
                    0x02de                  _TRISFbits = 0x2de
                    0x02e0                  PORTF = 0x2e0
                    0x02e0                  _PORTF = 0x2e0
                    0x02e0                  _PORTFbits = 0x2e0
                    0x02e2                  LATF = 0x2e2
                    0x02e2                  _LATF = 0x2e2
                    0x02e2                  _LATFbits = 0x2e2
                    0x02e4                  TRISG = 0x2e4
                    0x02e4                  _TRISG = 0x2e4
                    0x02e4                  _TRISGbits = 0x2e4
                    0x02e6                  PORTG = 0x2e6
                    0x02e6                  _PORTG = 0x2e6
                    0x02e6                  _PORTGbits = 0x2e6
                    0x02e8                  LATG = 0x2e8
                    0x02e8                  _LATG = 0x2e8
                    0x02e8                  _LATGbits = 0x2e8
                    0x0300                  ADC1BUF0 = 0x300
                    0x0300                  _ADC1BUF0 = 0x300
                    0x0300                  ADCBUF0 = 0x300
                    0x0300                  _ADCBUF0 = 0x300
                    0x0320                  AD1CON1 = 0x320
                    0x0320                  _AD1CON1 = 0x320
                    0x0320                  _AD1CON1bits = 0x320
                    0x0322                  AD1CON2 = 0x322
                    0x0322                  _AD1CON2 = 0x322
                    0x0322                  _AD1CON2bits = 0x322
                    0x0324                  AD1CON3 = 0x324
                    0x0324                  _AD1CON3 = 0x324
                    0x0324                  _AD1CON3bits = 0x324
                    0x0326                  AD1CHS123 = 0x326
                    0x0326                  _AD1CHS123 = 0x326
                    0x0326                  _AD1CHS123bits = 0x326
                    0x0328                  AD1CHS0 = 0x328
                    0x0328                  _AD1CHS0 = 0x328
                    0x0328                  _AD1CHS0bits = 0x328
                    0x032a                  AD1PCFGH = 0x32a
                    0x032a                  _AD1PCFGH = 0x32a
                    0x032a                  _AD1PCFGHbits = 0x32a
                    0x032c                  AD1PCFGL = 0x32c
                    0x032c                  _AD1PCFGL = 0x32c
                    0x032c                  _AD1PCFGLbits = 0x32c
                    0x032c                  ADPCFG = 0x32c
                    0x032c                  _ADPCFG = 0x32c
                    0x032c                  _ADPCFGbits = 0x32c
                    0x032e                  AD1CSSH = 0x32e
                    0x032e                  _AD1CSSH = 0x32e
                    0x032e                  _AD1CSSHbits = 0x32e
                    0x0330                  AD1CSSL = 0x330
                    0x0330                  _AD1CSSL = 0x330
                    0x0330                  _AD1CSSLbits = 0x330
                    0x0332                  AD1CON4 = 0x332
                    0x0332                  _AD1CON4 = 0x332
                    0x0332                  _AD1CON4bits = 0x332
                    0x0340                  ADC2BUF0 = 0x340
                    0x0340                  _ADC2BUF0 = 0x340
                    0x0360                  AD2CON1 = 0x360
                    0x0360                  _AD2CON1 = 0x360
                    0x0360                  _AD2CON1bits = 0x360
                    0x0362                  AD2CON2 = 0x362
                    0x0362                  _AD2CON2 = 0x362
                    0x0362                  _AD2CON2bits = 0x362
                    0x0364                  AD2CON3 = 0x364
                    0x0364                  _AD2CON3 = 0x364
                    0x0364                  _AD2CON3bits = 0x364
                    0x0366                  AD2CHS123 = 0x366
                    0x0366                  _AD2CHS123 = 0x366
                    0x0366                  _AD2CHS123bits = 0x366
                    0x0368                  AD2CHS0 = 0x368
                    0x0368                  _AD2CHS0 = 0x368
                    0x0368                  _AD2CHS0bits = 0x368
                    0x036c                  AD2PCFGL = 0x36c
                    0x036c                  _AD2PCFGL = 0x36c
                    0x036c                  _AD2PCFGLbits = 0x36c
                    0x0370                  AD2CSSL = 0x370
                    0x0370                  _AD2CSSL = 0x370
                    0x0370                  _AD2CSSLbits = 0x370
                    0x0372                  AD2CON4 = 0x372
                    0x0372                  _AD2CON4 = 0x372
                    0x0372                  _AD2CON4bits = 0x372
                    0x0380                  DMA0CON = 0x380
                    0x0380                  _DMA0CON = 0x380
                    0x0380                  _DMA0CONbits = 0x380
                    0x0382                  DMA0REQ = 0x382
                    0x0382                  _DMA0REQ = 0x382
                    0x0382                  _DMA0REQbits = 0x382
                    0x0384                  DMA0STA = 0x384
                    0x0384                  _DMA0STA = 0x384
                    0x0386                  DMA0STB = 0x386
                    0x0386                  _DMA0STB = 0x386
                    0x0388                  DMA0PAD = 0x388
                    0x0388                  _DMA0PAD = 0x388
                    0x038a                  DMA0CNT = 0x38a
                    0x038a                  _DMA0CNT = 0x38a
                    0x038c                  DMA1CON = 0x38c
                    0x038c                  _DMA1CON = 0x38c
                    0x038c                  _DMA1CONbits = 0x38c
                    0x038e                  DMA1REQ = 0x38e
                    0x038e                  _DMA1REQ = 0x38e
                    0x038e                  _DMA1REQbits = 0x38e
                    0x0390                  DMA1STA = 0x390
                    0x0390                  _DMA1STA = 0x390
                    0x0392                  DMA1STB = 0x392
                    0x0392                  _DMA1STB = 0x392
                    0x0394                  DMA1PAD = 0x394
                    0x0394                  _DMA1PAD = 0x394
                    0x0396                  DMA1CNT = 0x396
                    0x0396                  _DMA1CNT = 0x396
                    0x0398                  DMA2CON = 0x398
                    0x0398                  _DMA2CON = 0x398
                    0x0398                  _DMA2CONbits = 0x398
                    0x039a                  DMA2REQ = 0x39a
                    0x039a                  _DMA2REQ = 0x39a
                    0x039a                  _DMA2REQbits = 0x39a
                    0x039c                  DMA2STA = 0x39c
                    0x039c                  _DMA2STA = 0x39c
                    0x039e                  DMA2STB = 0x39e
                    0x039e                  _DMA2STB = 0x39e
                    0x03a0                  DMA2PAD = 0x3a0
                    0x03a0                  _DMA2PAD = 0x3a0
                    0x03a2                  DMA2CNT = 0x3a2
                    0x03a2                  _DMA2CNT = 0x3a2
                    0x03a4                  DMA3CON = 0x3a4
                    0x03a4                  _DMA3CON = 0x3a4
                    0x03a4                  _DMA3CONbits = 0x3a4
                    0x03a6                  DMA3REQ = 0x3a6
                    0x03a6                  _DMA3REQ = 0x3a6
                    0x03a6                  _DMA3REQbits = 0x3a6
                    0x03a8                  DMA3STA = 0x3a8
                    0x03a8                  _DMA3STA = 0x3a8
                    0x03aa                  DMA3STB = 0x3aa
                    0x03aa                  _DMA3STB = 0x3aa
                    0x03ac                  DMA3PAD = 0x3ac
                    0x03ac                  _DMA3PAD = 0x3ac
                    0x03ae                  DMA3CNT = 0x3ae
                    0x03ae                  _DMA3CNT = 0x3ae
                    0x03b0                  DMA4CON = 0x3b0
                    0x03b0                  _DMA4CON = 0x3b0
                    0x03b0                  _DMA4CONbits = 0x3b0
                    0x03b2                  DMA4REQ = 0x3b2
                    0x03b2                  _DMA4REQ = 0x3b2
                    0x03b2                  _DMA4REQbits = 0x3b2
                    0x03b4                  DMA4STA = 0x3b4
                    0x03b4                  _DMA4STA = 0x3b4
                    0x03b6                  DMA4STB = 0x3b6
                    0x03b6                  _DMA4STB = 0x3b6
                    0x03b8                  DMA4PAD = 0x3b8
                    0x03b8                  _DMA4PAD = 0x3b8
                    0x03ba                  DMA4CNT = 0x3ba
                    0x03ba                  _DMA4CNT = 0x3ba
                    0x03bc                  DMA5CON = 0x3bc
                    0x03bc                  _DMA5CON = 0x3bc
                    0x03bc                  _DMA5CONbits = 0x3bc
                    0x03be                  DMA5REQ = 0x3be
                    0x03be                  _DMA5REQ = 0x3be
                    0x03be                  _DMA5REQbits = 0x3be
                    0x03c0                  DMA5STA = 0x3c0
                    0x03c0                  _DMA5STA = 0x3c0
                    0x03c2                  DMA5STB = 0x3c2
                    0x03c2                  _DMA5STB = 0x3c2
                    0x03c4                  DMA5PAD = 0x3c4
                    0x03c4                  _DMA5PAD = 0x3c4
                    0x03c6                  DMA5CNT = 0x3c6
                    0x03c6                  _DMA5CNT = 0x3c6
                    0x03c8                  DMA6CON = 0x3c8
                    0x03c8                  _DMA6CON = 0x3c8
                    0x03c8                  _DMA6CONbits = 0x3c8
                    0x03ca                  DMA6REQ = 0x3ca
                    0x03ca                  _DMA6REQ = 0x3ca
                    0x03ca                  _DMA6REQbits = 0x3ca
                    0x03cc                  DMA6STA = 0x3cc
                    0x03cc                  _DMA6STA = 0x3cc
                    0x03ce                  DMA6STB = 0x3ce
                    0x03ce                  _DMA6STB = 0x3ce
                    0x03d0                  DMA6PAD = 0x3d0
                    0x03d0                  _DMA6PAD = 0x3d0
                    0x03d2                  DMA6CNT = 0x3d2
                    0x03d2                  _DMA6CNT = 0x3d2
                    0x03d4                  DMA7CON = 0x3d4
                    0x03d4                  _DMA7CON = 0x3d4
                    0x03d4                  _DMA7CONbits = 0x3d4
                    0x03d6                  DMA7REQ = 0x3d6
                    0x03d6                  _DMA7REQ = 0x3d6
                    0x03d6                  _DMA7REQbits = 0x3d6
                    0x03d8                  DMA7STA = 0x3d8
                    0x03d8                  _DMA7STA = 0x3d8
                    0x03da                  DMA7STB = 0x3da
                    0x03da                  _DMA7STB = 0x3da
                    0x03dc                  DMA7PAD = 0x3dc
                    0x03dc                  _DMA7PAD = 0x3dc
                    0x03de                  DMA7CNT = 0x3de
                    0x03de                  _DMA7CNT = 0x3de
                    0x03e0                  DMACS0 = 0x3e0
                    0x03e0                  _DMACS0 = 0x3e0
                    0x03e0                  _DMACS0bits = 0x3e0
                    0x03e2                  DMACS1 = 0x3e2
                    0x03e2                  _DMACS1 = 0x3e2
                    0x03e2                  _DMACS1bits = 0x3e2
                    0x03e4                  DSADR = 0x3e4
                    0x03e4                  _DSADR = 0x3e4
                    0x0400                  C1CTRL1 = 0x400
                    0x0400                  _C1CTRL1 = 0x400
                    0x0400                  _C1CTRL1bits = 0x400
                    0x0402                  C1CTRL2 = 0x402
                    0x0402                  _C1CTRL2 = 0x402
                    0x0402                  _C1CTRL2bits = 0x402
                    0x0404                  C1VEC = 0x404
                    0x0404                  _C1VEC = 0x404
                    0x0404                  _C1VECbits = 0x404
                    0x0406                  C1FCTRL = 0x406
                    0x0406                  _C1FCTRL = 0x406
                    0x0406                  _C1FCTRLbits = 0x406
                    0x0408                  C1FIFO = 0x408
                    0x0408                  _C1FIFO = 0x408
                    0x0408                  _C1FIFObits = 0x408
                    0x040a                  C1INTF = 0x40a
                    0x040a                  _C1INTF = 0x40a
                    0x040a                  _C1INTFbits = 0x40a
                    0x040c                  C1INTE = 0x40c
                    0x040c                  _C1INTE = 0x40c
                    0x040c                  _C1INTEbits = 0x40c
                    0x040e                  C1EC = 0x40e
                    0x040e                  _C1EC = 0x40e
                    0x040e                  _C1ECbits = 0x40e
                    0x040e                  C1RERRCNT = 0x40e
                    0x040e                  _C1RERRCNT = 0x40e
                    0x040f                  C1TERRCNT = 0x40f
                    0x040f                  _C1TERRCNT = 0x40f
                    0x0410                  C1CFG1 = 0x410
                    0x0410                  _C1CFG1 = 0x410
                    0x0410                  _C1CFG1bits = 0x410
                    0x0412                  C1CFG2 = 0x412
                    0x0412                  _C1CFG2 = 0x412
                    0x0412                  _C1CFG2bits = 0x412
                    0x0414                  C1FEN1 = 0x414
                    0x0414                  _C1FEN1 = 0x414
                    0x0414                  _C1FEN1bits = 0x414
                    0x0418                  C1FMSKSEL1 = 0x418
                    0x0418                  _C1FMSKSEL1 = 0x418
                    0x0418                  _C1FMSKSEL1bits = 0x418
                    0x041a                  C1FMSKSEL2 = 0x41a
                    0x041a                  _C1FMSKSEL2 = 0x41a
                    0x041a                  _C1FMSKSEL2bits = 0x41a
                    0x0420                  C1BUFPNT1 = 0x420
                    0x0420                  _C1BUFPNT1 = 0x420
                    0x0420                  _C1BUFPNT1bits = 0x420
                    0x0420                  C1RXFUL1 = 0x420
                    0x0420                  _C1RXFUL1 = 0x420
                    0x0420                  _C1RXFUL1bits = 0x420
                    0x0422                  C1BUFPNT2 = 0x422
                    0x0422                  _C1BUFPNT2 = 0x422
                    0x0422                  _C1BUFPNT2bits = 0x422
                    0x0422                  C1RXFUL2 = 0x422
                    0x0422                  _C1RXFUL2 = 0x422
                    0x0422                  _C1RXFUL2bits = 0x422
                    0x0424                  C1BUFPNT3 = 0x424
                    0x0424                  _C1BUFPNT3 = 0x424
                    0x0424                  _C1BUFPNT3bits = 0x424
                    0x0426                  C1BUFPNT4 = 0x426
                    0x0426                  _C1BUFPNT4 = 0x426
                    0x0426                  _C1BUFPNT4bits = 0x426
                    0x0428                  C1RXOVF1 = 0x428
                    0x0428                  _C1RXOVF1 = 0x428
                    0x0428                  _C1RXOVF1bits = 0x428
                    0x042a                  C1RXOVF2 = 0x42a
                    0x042a                  _C1RXOVF2 = 0x42a
                    0x042a                  _C1RXOVF2bits = 0x42a
                    0x0430                  C1RXM0SID = 0x430
                    0x0430                  _C1RXM0SID = 0x430
                    0x0430                  _C1RXM0SIDbits = 0x430
                    0x0430                  C1TR01CON = 0x430
                    0x0430                  _C1TR01CON = 0x430
                    0x0430                  _C1TR01CONbits = 0x430
                    0x0432                  C1RXM0EID = 0x432
                    0x0432                  _C1RXM0EID = 0x432
                    0x0432                  _C1RXM0EIDbits = 0x432
                    0x0432                  C1TR23CON = 0x432
                    0x0432                  _C1TR23CON = 0x432
                    0x0432                  _C1TR23CONbits = 0x432
                    0x0434                  C1RXM1SID = 0x434
                    0x0434                  _C1RXM1SID = 0x434
                    0x0434                  _C1RXM1SIDbits = 0x434
                    0x0434                  C1TR45CON = 0x434
                    0x0434                  _C1TR45CON = 0x434
                    0x0434                  _C1TR45CONbits = 0x434
                    0x0436                  C1RXM1EID = 0x436
                    0x0436                  _C1RXM1EID = 0x436
                    0x0436                  _C1RXM1EIDbits = 0x436
                    0x0436                  C1TR67CON = 0x436
                    0x0436                  _C1TR67CON = 0x436
                    0x0436                  _C1TR67CONbits = 0x436
                    0x0438                  C1RXM2SID = 0x438
                    0x0438                  _C1RXM2SID = 0x438
                    0x0438                  _C1RXM2SIDbits = 0x438
                    0x043a                  C1RXM2EID = 0x43a
                    0x043a                  _C1RXM2EID = 0x43a
                    0x043a                  _C1RXM2EIDbits = 0x43a
                    0x0440                  C1RXD = 0x440
                    0x0440                  _C1RXD = 0x440
                    0x0440                  C1RXF0SID = 0x440
                    0x0440                  _C1RXF0SID = 0x440
                    0x0440                  _C1RXF0SIDbits = 0x440
                    0x0442                  C1RXF0EID = 0x442
                    0x0442                  _C1RXF0EID = 0x442
                    0x0442                  _C1RXF0EIDbits = 0x442
                    0x0442                  C1TXD = 0x442
                    0x0442                  _C1TXD = 0x442
                    0x0444                  C1RXF1SID = 0x444
                    0x0444                  _C1RXF1SID = 0x444
                    0x0444                  _C1RXF1SIDbits = 0x444
                    0x0446                  C1RXF1EID = 0x446
                    0x0446                  _C1RXF1EID = 0x446
                    0x0446                  _C1RXF1EIDbits = 0x446
                    0x0448                  C1RXF2SID = 0x448
                    0x0448                  _C1RXF2SID = 0x448
                    0x0448                  _C1RXF2SIDbits = 0x448
                    0x044a                  C1RXF2EID = 0x44a
                    0x044a                  _C1RXF2EID = 0x44a
                    0x044a                  _C1RXF2EIDbits = 0x44a
                    0x044c                  C1RXF3SID = 0x44c
                    0x044c                  _C1RXF3SID = 0x44c
                    0x044c                  _C1RXF3SIDbits = 0x44c
                    0x044e                  C1RXF3EID = 0x44e
                    0x044e                  _C1RXF3EID = 0x44e
                    0x044e                  _C1RXF3EIDbits = 0x44e
                    0x0450                  C1RXF4SID = 0x450
                    0x0450                  _C1RXF4SID = 0x450
                    0x0450                  _C1RXF4SIDbits = 0x450
                    0x0452                  C1RXF4EID = 0x452
                    0x0452                  _C1RXF4EID = 0x452
                    0x0452                  _C1RXF4EIDbits = 0x452
                    0x0454                  C1RXF5SID = 0x454
                    0x0454                  _C1RXF5SID = 0x454
                    0x0454                  _C1RXF5SIDbits = 0x454
                    0x0456                  C1RXF5EID = 0x456
                    0x0456                  _C1RXF5EID = 0x456
                    0x0456                  _C1RXF5EIDbits = 0x456
                    0x0458                  C1RXF6SID = 0x458
                    0x0458                  _C1RXF6SID = 0x458
                    0x0458                  _C1RXF6SIDbits = 0x458
                    0x045a                  C1RXF6EID = 0x45a
                    0x045a                  _C1RXF6EID = 0x45a
                    0x045a                  _C1RXF6EIDbits = 0x45a
                    0x045c                  C1RXF7SID = 0x45c
                    0x045c                  _C1RXF7SID = 0x45c
                    0x045c                  _C1RXF7SIDbits = 0x45c
                    0x045e                  C1RXF7EID = 0x45e
                    0x045e                  _C1RXF7EID = 0x45e
                    0x045e                  _C1RXF7EIDbits = 0x45e
                    0x0460                  C1RXF8SID = 0x460
                    0x0460                  _C1RXF8SID = 0x460
                    0x0460                  _C1RXF8SIDbits = 0x460
                    0x0462                  C1RXF8EID = 0x462
                    0x0462                  _C1RXF8EID = 0x462
                    0x0462                  _C1RXF8EIDbits = 0x462
                    0x0464                  C1RXF9SID = 0x464
                    0x0464                  _C1RXF9SID = 0x464
                    0x0464                  _C1RXF9SIDbits = 0x464
                    0x0466                  C1RXF9EID = 0x466
                    0x0466                  _C1RXF9EID = 0x466
                    0x0466                  _C1RXF9EIDbits = 0x466
                    0x0468                  C1RXF10SID = 0x468
                    0x0468                  _C1RXF10SID = 0x468
                    0x0468                  _C1RXF10SIDbits = 0x468
                    0x046a                  C1RXF10EID = 0x46a
                    0x046a                  _C1RXF10EID = 0x46a
                    0x046a                  _C1RXF10EIDbits = 0x46a
                    0x046c                  C1RXF11SID = 0x46c
                    0x046c                  _C1RXF11SID = 0x46c
                    0x046c                  _C1RXF11SIDbits = 0x46c
                    0x046e                  C1RXF11EID = 0x46e
                    0x046e                  _C1RXF11EID = 0x46e
                    0x046e                  _C1RXF11EIDbits = 0x46e
                    0x0470                  C1RXF12SID = 0x470
                    0x0470                  _C1RXF12SID = 0x470
                    0x0470                  _C1RXF12SIDbits = 0x470
                    0x0472                  C1RXF12EID = 0x472
                    0x0472                  _C1RXF12EID = 0x472
                    0x0472                  _C1RXF12EIDbits = 0x472
                    0x0474                  C1RXF13SID = 0x474
                    0x0474                  _C1RXF13SID = 0x474
                    0x0474                  _C1RXF13SIDbits = 0x474
                    0x0476                  C1RXF13EID = 0x476
                    0x0476                  _C1RXF13EID = 0x476
                    0x0476                  _C1RXF13EIDbits = 0x476
                    0x0478                  C1RXF14SID = 0x478
                    0x0478                  _C1RXF14SID = 0x478
                    0x0478                  _C1RXF14SIDbits = 0x478
                    0x047a                  C1RXF14EID = 0x47a
                    0x047a                  _C1RXF14EID = 0x47a
                    0x047a                  _C1RXF14EIDbits = 0x47a
                    0x047c                  C1RXF15SID = 0x47c
                    0x047c                  _C1RXF15SID = 0x47c
                    0x047c                  _C1RXF15SIDbits = 0x47c
                    0x047e                  C1RXF15EID = 0x47e
                    0x047e                  _C1RXF15EID = 0x47e
                    0x047e                  _C1RXF15EIDbits = 0x47e
                    0x0500                  C2CTRL1 = 0x500
                    0x0500                  _C2CTRL1 = 0x500
                    0x0500                  _C2CTRL1bits = 0x500
                    0x0502                  C2CTRL2 = 0x502
                    0x0502                  _C2CTRL2 = 0x502
                    0x0502                  _C2CTRL2bits = 0x502
                    0x0504                  C2VEC = 0x504
                    0x0504                  _C2VEC = 0x504
                    0x0504                  _C2VECbits = 0x504
                    0x0506                  C2FCTRL = 0x506
                    0x0506                  _C2FCTRL = 0x506
                    0x0506                  _C2FCTRLbits = 0x506
                    0x0508                  C2FIFO = 0x508
                    0x0508                  _C2FIFO = 0x508
                    0x0508                  _C2FIFObits = 0x508
                    0x050a                  C2INTF = 0x50a
                    0x050a                  _C2INTF = 0x50a
                    0x050a                  _C2INTFbits = 0x50a
                    0x050c                  C2INTE = 0x50c
                    0x050c                  _C2INTE = 0x50c
                    0x050c                  _C2INTEbits = 0x50c
                    0x050e                  C2EC = 0x50e
                    0x050e                  _C2EC = 0x50e
                    0x050e                  _C2ECbits = 0x50e
                    0x050e                  C2RERRCNT = 0x50e
                    0x050e                  _C2RERRCNT = 0x50e
                    0x050f                  C2TERRCNT = 0x50f
                    0x050f                  _C2TERRCNT = 0x50f
                    0x0510                  C2CFG1 = 0x510
                    0x0510                  _C2CFG1 = 0x510
                    0x0510                  _C2CFG1bits = 0x510
                    0x0512                  C2CFG2 = 0x512
                    0x0512                  _C2CFG2 = 0x512
                    0x0512                  _C2CFG2bits = 0x512
                    0x0514                  C2FEN1 = 0x514
                    0x0514                  _C2FEN1 = 0x514
                    0x0514                  _C2FEN1bits = 0x514
                    0x0518                  C2FMSKSEL1 = 0x518
                    0x0518                  _C2FMSKSEL1 = 0x518
                    0x0518                  _C2FMSKSEL1bits = 0x518
                    0x051a                  C2FMSKSEL2 = 0x51a
                    0x051a                  _C2FMSKSEL2 = 0x51a
                    0x051a                  _C2FMSKSEL2bits = 0x51a
                    0x0520                  C2BUFPNT1 = 0x520
                    0x0520                  _C2BUFPNT1 = 0x520
                    0x0520                  _C2BUFPNT1bits = 0x520
                    0x0520                  C2RXFUL1 = 0x520
                    0x0520                  _C2RXFUL1 = 0x520
                    0x0520                  _C2RXFUL1bits = 0x520
                    0x0522                  C2BUFPNT2 = 0x522
                    0x0522                  _C2BUFPNT2 = 0x522
                    0x0522                  _C2BUFPNT2bits = 0x522
                    0x0522                  C2RXFUL2 = 0x522
                    0x0522                  _C2RXFUL2 = 0x522
                    0x0522                  _C2RXFUL2bits = 0x522
                    0x0524                  C2BUFPNT3 = 0x524
                    0x0524                  _C2BUFPNT3 = 0x524
                    0x0524                  _C2BUFPNT3bits = 0x524
                    0x0526                  C2BUFPNT4 = 0x526
                    0x0526                  _C2BUFPNT4 = 0x526
                    0x0526                  _C2BUFPNT4bits = 0x526
                    0x0528                  C2RXOVF1 = 0x528
                    0x0528                  _C2RXOVF1 = 0x528
                    0x0528                  _C2RXOVF1bits = 0x528
                    0x052a                  C2RXOVF2 = 0x52a
                    0x052a                  _C2RXOVF2 = 0x52a
                    0x052a                  _C2RXOVF2bits = 0x52a
                    0x0530                  C2RXM0SID = 0x530
                    0x0530                  _C2RXM0SID = 0x530
                    0x0530                  _C2RXM0SIDbits = 0x530
                    0x0530                  C2TR01CON = 0x530
                    0x0530                  _C2TR01CON = 0x530
                    0x0530                  _C2TR01CONbits = 0x530
                    0x0532                  C2RXM0EID = 0x532
                    0x0532                  _C2RXM0EID = 0x532
                    0x0532                  _C2RXM0EIDbits = 0x532
                    0x0532                  C2TR23CON = 0x532
                    0x0532                  _C2TR23CON = 0x532
                    0x0532                  _C2TR23CONbits = 0x532
                    0x0534                  C2RXM1SID = 0x534
                    0x0534                  _C2RXM1SID = 0x534
                    0x0534                  _C2RXM1SIDbits = 0x534
                    0x0534                  C2TR45CON = 0x534
                    0x0534                  _C2TR45CON = 0x534
                    0x0534                  _C2TR45CONbits = 0x534
                    0x0536                  C2RXM1EID = 0x536
                    0x0536                  _C2RXM1EID = 0x536
                    0x0536                  _C2RXM1EIDbits = 0x536
                    0x0536                  C2TR67CON = 0x536
                    0x0536                  _C2TR67CON = 0x536
                    0x0536                  _C2TR67CONbits = 0x536
                    0x0538                  C2RXM2SID = 0x538
                    0x0538                  _C2RXM2SID = 0x538
                    0x0538                  _C2RXM2SIDbits = 0x538
                    0x053a                  C2RXM2EID = 0x53a
                    0x053a                  _C2RXM2EID = 0x53a
                    0x053a                  _C2RXM2EIDbits = 0x53a
                    0x0540                  C2RXD = 0x540
                    0x0540                  _C2RXD = 0x540
                    0x0540                  C2RXF0SID = 0x540
                    0x0540                  _C2RXF0SID = 0x540
                    0x0540                  _C2RXF0SIDbits = 0x540
                    0x0542                  C2RXF0EID = 0x542
                    0x0542                  _C2RXF0EID = 0x542
                    0x0542                  _C2RXF0EIDbits = 0x542
                    0x0542                  C2TXD = 0x542
                    0x0542                  _C2TXD = 0x542
                    0x0544                  C2RXF1SID = 0x544
                    0x0544                  _C2RXF1SID = 0x544
                    0x0544                  _C2RXF1SIDbits = 0x544
                    0x0546                  C2RXF1EID = 0x546
                    0x0546                  _C2RXF1EID = 0x546
                    0x0546                  _C2RXF1EIDbits = 0x546
                    0x0548                  C2RXF2SID = 0x548
                    0x0548                  _C2RXF2SID = 0x548
                    0x0548                  _C2RXF2SIDbits = 0x548
                    0x054a                  C2RXF2EID = 0x54a
                    0x054a                  _C2RXF2EID = 0x54a
                    0x054a                  _C2RXF2EIDbits = 0x54a
                    0x054c                  C2RXF3SID = 0x54c
                    0x054c                  _C2RXF3SID = 0x54c
                    0x054c                  _C2RXF3SIDbits = 0x54c
                    0x054e                  C2RXF3EID = 0x54e
                    0x054e                  _C2RXF3EID = 0x54e
                    0x054e                  _C2RXF3EIDbits = 0x54e
                    0x0550                  C2RXF4SID = 0x550
                    0x0550                  _C2RXF4SID = 0x550
                    0x0550                  _C2RXF4SIDbits = 0x550
                    0x0552                  C2RXF4EID = 0x552
                    0x0552                  _C2RXF4EID = 0x552
                    0x0552                  _C2RXF4EIDbits = 0x552
                    0x0554                  C2RXF5SID = 0x554
                    0x0554                  _C2RXF5SID = 0x554
                    0x0554                  _C2RXF5SIDbits = 0x554
                    0x0556                  C2RXF5EID = 0x556
                    0x0556                  _C2RXF5EID = 0x556
                    0x0556                  _C2RXF5EIDbits = 0x556
                    0x0558                  C2RXF6SID = 0x558
                    0x0558                  _C2RXF6SID = 0x558
                    0x0558                  _C2RXF6SIDbits = 0x558
                    0x055a                  C2RXF6EID = 0x55a
                    0x055a                  _C2RXF6EID = 0x55a
                    0x055a                  _C2RXF6EIDbits = 0x55a
                    0x055c                  C2RXF7SID = 0x55c
                    0x055c                  _C2RXF7SID = 0x55c
                    0x055c                  _C2RXF7SIDbits = 0x55c
                    0x055e                  C2RXF7EID = 0x55e
                    0x055e                  _C2RXF7EID = 0x55e
                    0x055e                  _C2RXF7EIDbits = 0x55e
                    0x0560                  C2RXF8SID = 0x560
                    0x0560                  _C2RXF8SID = 0x560
                    0x0560                  _C2RXF8SIDbits = 0x560
                    0x0562                  C2RXF8EID = 0x562
                    0x0562                  _C2RXF8EID = 0x562
                    0x0562                  _C2RXF8EIDbits = 0x562
                    0x0564                  C2RXF9SID = 0x564
                    0x0564                  _C2RXF9SID = 0x564
                    0x0564                  _C2RXF9SIDbits = 0x564
                    0x0566                  C2RXF9EID = 0x566
                    0x0566                  _C2RXF9EID = 0x566
                    0x0566                  _C2RXF9EIDbits = 0x566
                    0x0568                  C2RXF10SID = 0x568
                    0x0568                  _C2RXF10SID = 0x568
                    0x0568                  _C2RXF10SIDbits = 0x568
                    0x056a                  C2RXF10EID = 0x56a
                    0x056a                  _C2RXF10EID = 0x56a
                    0x056a                  _C2RXF10EIDbits = 0x56a
                    0x056c                  C2RXF11SID = 0x56c
                    0x056c                  _C2RXF11SID = 0x56c
                    0x056c                  _C2RXF11SIDbits = 0x56c
                    0x056e                  C2RXF11EID = 0x56e
                    0x056e                  _C2RXF11EID = 0x56e
                    0x056e                  _C2RXF11EIDbits = 0x56e
                    0x0570                  C2RXF12SID = 0x570
                    0x0570                  _C2RXF12SID = 0x570
                    0x0570                  _C2RXF12SIDbits = 0x570
                    0x0572                  C2RXF12EID = 0x572
                    0x0572                  _C2RXF12EID = 0x572
                    0x0572                  _C2RXF12EIDbits = 0x572
                    0x0574                  C2RXF13SID = 0x574
                    0x0574                  _C2RXF13SID = 0x574
                    0x0574                  _C2RXF13SIDbits = 0x574
                    0x0576                  C2RXF13EID = 0x576
                    0x0576                  _C2RXF13EID = 0x576
                    0x0576                  _C2RXF13EIDbits = 0x576
                    0x0578                  C2RXF14SID = 0x578
                    0x0578                  _C2RXF14SID = 0x578
                    0x0578                  _C2RXF14SIDbits = 0x578
                    0x057a                  C2RXF14EID = 0x57a
                    0x057a                  _C2RXF14EID = 0x57a
                    0x057a                  _C2RXF14EIDbits = 0x57a
                    0x057c                  C2RXF15SID = 0x57c
                    0x057c                  _C2RXF15SID = 0x57c
                    0x057c                  _C2RXF15SIDbits = 0x57c
                    0x057e                  C2RXF15EID = 0x57e
                    0x057e                  _C2RXF15EID = 0x57e
                    0x057e                  _C2RXF15EIDbits = 0x57e
                    0x06c0                  ODCA = 0x6c0
                    0x06c0                  _ODCA = 0x6c0
                    0x06c0                  _ODCAbits = 0x6c0
                    0x06d2                  ODCD = 0x6d2
                    0x06d2                  _ODCD = 0x6d2
                    0x06d2                  _ODCDbits = 0x6d2
                    0x06de                  ODCF = 0x6de
                    0x06de                  _ODCF = 0x6de
                    0x06de                  _ODCFbits = 0x6de
                    0x06e4                  ODCG = 0x6e4
                    0x06e4                  _ODCG = 0x6e4
                    0x06e4                  _ODCGbits = 0x6e4
                    0x0740                  RCON = 0x740
                    0x0740                  _RCON = 0x740
                    0x0740                  _RCONbits = 0x740
                    0x0742                  OSCCON = 0x742
                    0x0742                  _OSCCON = 0x742
                    0x0742                  _OSCCONbits = 0x742
                    0x0742                  OSCCONL = 0x742
                    0x0742                  _OSCCONL = 0x742
                    0x0743                  OSCCONH = 0x743
                    0x0743                  _OSCCONH = 0x743
                    0x0744                  CLKDIV = 0x744
                    0x0744                  _CLKDIV = 0x744
                    0x0744                  _CLKDIVbits = 0x744
                    0x0746                  PLLFBD = 0x746
                    0x0746                  _PLLFBD = 0x746
                    0x0746                  _PLLFBDbits = 0x746
                    0x0748                  OSCTUN = 0x748
                    0x0748                  _OSCTUN = 0x748
                    0x0748                  _OSCTUNbits = 0x748
                    0x0750                  BSRAM = 0x750
                    0x0750                  _BSRAM = 0x750
                    0x0750                  _BSRAMbits = 0x750
                    0x0752                  SSRAM = 0x752
                    0x0752                  _SSRAM = 0x752
                    0x0752                  _SSRAMbits = 0x752
                    0x0760                  NVMCON = 0x760
                    0x0760                  _NVMCON = 0x760
                    0x0760                  _NVMCONbits = 0x760
                    0x0766                  NVMKEY = 0x766
                    0x0766                  _NVMKEY = 0x766
                    0x0770                  PMD1 = 0x770
                    0x0770                  _PMD1 = 0x770
                    0x0770                  _PMD1bits = 0x770
                    0x0772                  PMD2 = 0x772
                    0x0772                  _PMD2 = 0x772
                    0x0772                  _PMD2bits = 0x772
                    0x0774                  PMD3 = 0x774
                    0x0774                  _PMD3 = 0x774
                    0x0774                  _PMD3bits = 0x774
                    0x0022                  ACCA = 0x22
                    0x0022                  _ACCA = 0x22
                    0x0028                  ACCB = 0x28
                    0x0028                  _ACCB = 0x28
                    0x0440                  CAN1 = 0x440
                    0x0440                  _CAN1 = 0x440
                    0x0540                  CAN2 = 0x540
                    0x0540                  _CAN2 = 0x540
                    0x0140                  IC1 = 0x140
                    0x0140                  _IC1 = 0x140
                    0x0144                  IC2 = 0x144
                    0x0144                  _IC2 = 0x144
                    0x0148                  IC3 = 0x148
                    0x0148                  _IC3 = 0x148
                    0x014c                  IC4 = 0x14c
                    0x014c                  _IC4 = 0x14c
                    0x0150                  IC5 = 0x150
                    0x0150                  _IC5 = 0x150
                    0x0154                  IC6 = 0x154
                    0x0154                  _IC6 = 0x154
                    0x0158                  IC7 = 0x158
                    0x0158                  _IC7 = 0x158
                    0x015c                  IC8 = 0x15c
                    0x015c                  _IC8 = 0x15c
                    0x0180                  OC1 = 0x180
                    0x0180                  _OC1 = 0x180
                    0x0186                  OC2 = 0x186
                    0x0186                  _OC2 = 0x186
                    0x018c                  OC3 = 0x18c
                    0x018c                  _OC3 = 0x18c
                    0x0192                  OC4 = 0x192
                    0x0192                  _OC4 = 0x192
                    0x0198                  OC5 = 0x198
                    0x0198                  _OC5 = 0x198
                    0x019e                  OC6 = 0x19e
                    0x019e                  _OC6 = 0x19e
                    0x01a4                  OC7 = 0x1a4
                    0x01a4                  _OC7 = 0x1a4
                    0x01aa                  OC8 = 0x1aa
                    0x01aa                  _OC8 = 0x1aa
                    0x0240                  SPI1 = 0x240
                    0x0240                  _SPI1 = 0x240
                    0x0260                  SPI2 = 0x260
                    0x0260                  _SPI2 = 0x260
                    0x0220                  UART1 = 0x220
                    0x0220                  _UART1 = 0x220
                    0x0230                  UART2 = 0x230
                    0x0230                  _UART2 = 0x230
                    0x0001                  __MPLAB_BUILD = 0x1
                    0x0001                  __MPLAB_DEBUG = 0x1
START GROUP
LOAD c:/program files (x86)/microchip/mplab c30/bin/bin/../../lib\liblega-pic30-coff.a
LOAD c:/program files (x86)/microchip/mplab c30/bin/bin/../../lib\libm-coff.a
LOAD c:/program files (x86)/microchip/mplab c30/bin/bin/../../lib\liblega-c-coff.a
END GROUP
OUTPUT(MatrixPilot-udb5.cof coff-pic30)
LOAD FGS
LOAD jump_table
LOAD data_init
LOAD default_isr

__c30_signature
                  0x00005e        0x534
 __c30_signature
                  0x00005e          0x6 build\UDB5\airspeedCntrl.o
 __c30_signature
                  0x000064          0x6 build\UDB5\altitudeCntrl.o
 __c30_signature
                  0x00006a          0x6 build\UDB5\altitudeCntrlVariable.o
 __c30_signature
                  0x000070          0x6 build\UDB5\behavior.o
 __c30_signature
                  0x000076          0x6 build\UDB5\cameraCntrl.o
 __c30_signature
                  0x00007c          0x6 build\UDB5\config.o
 __c30_signature
                  0x000082          0x6 build\UDB5\config_tests.o
 __c30_signature
                  0x000088          0x6 build\UDB5\console.o
 __c30_signature
                  0x00008e          0x6 build\UDB5\data_services.o
 __c30_signature
                  0x000094          0x6 build\UDB5\data_storage.o
 __c30_signature
                  0x00009a          0x6 build\UDB5\euler_angles.o
 __c30_signature
                  0x0000a0          0x6 build\UDB5\flightplan-logo.o
 __c30_signature
                  0x0000a6          0x6 build\UDB5\flightplan-waypoints.o
 __c30_signature
                  0x0000ac          0x6 build\UDB5\flightplan.o
 __c30_signature
                  0x0000b2          0x6 build\UDB5\flight_state.o
 __c30_signature
                  0x0000b8          0x6 build\UDB5\fly_by_datalink.o
 __c30_signature
                  0x0000be          0x6 build\UDB5\helicalTurnCntrl.o
 __c30_signature
                  0x0000c4          0x6 build\UDB5\main.o
 __c30_signature
                  0x0000ca          0x6 build\UDB5\MAVFlexiFunctions.o
 __c30_signature
                  0x0000d0          0x6 build\UDB5\MAVLink.o
 __c30_signature
                  0x0000d6          0x6 build\UDB5\MAVMission.o
 __c30_signature
                  0x0000dc          0x6 build\UDB5\MAVParams.o
 __c30_signature
                  0x0000e2          0x6 build\UDB5\MAVUDBExtra.o
 __c30_signature
                  0x0000e8          0x6 build\UDB5\minim_osd.o
 __c30_signature
                  0x0000ee          0x6 build\UDB5\minIni.o
 __c30_signature
                  0x0000f4          0x6 build\UDB5\mode_switch.o
 __c30_signature
                  0x0000fa          0x6 build\UDB5\mp_osd.o
 __c30_signature
                  0x000100          0x6 build\UDB5\navigate.o
 __c30_signature
                  0x000106          0x6 build\UDB5\nv_memory_table.o
 __c30_signature
                  0x00010c          0x6 build\UDB5\parameter_table.o
 __c30_signature
                  0x000112          0x6 build\UDB5\parameter_table2.o
 __c30_signature
                  0x000118          0x6 build\UDB5\parameter_table_init.o
 __c30_signature
                  0x00011e          0x6 build\UDB5\pitchCntrl.o
 __c30_signature
                  0x000124          0x6 build\UDB5\preflight.o
 __c30_signature
                  0x00012a          0x6 build\UDB5\redef.o
 __c30_signature
                  0x000130          0x6 build\UDB5\remzibi_osd.o
 __c30_signature
                  0x000136          0x6 build\UDB5\ring_buffer.o
 __c30_signature
                  0x00013c          0x6 build\UDB5\rollCntrl.o
 __c30_signature
                  0x000142          0x6 build\UDB5\servoMix.o
 __c30_signature
                  0x000148          0x6 build\UDB5\servoPrepare.o
 __c30_signature
                  0x00014e          0x6 build\UDB5\sonarCntrl.o
 __c30_signature
                  0x000154          0x6 build\UDB5\states.o
 __c30_signature
                  0x00015a          0x6 build\UDB5\telemetry.o
 __c30_signature
                  0x000160          0x6 build\UDB5\telemetry_log.o
 __c30_signature
                  0x000166          0x6 build\UDB5\yawCntrl.o
 __c30_signature
                  0x00016c          0x6 build\UDB5\MAVFTP.o
 __c30_signature
                  0x000172          0x6 build\UDB5\bittest.o
 __c30_signature
                  0x000178          0x6 build\UDB5\deadReckoning.o
 __c30_signature
                  0x00017e          0x6 build\UDB5\estAirspeed.o
 __c30_signature
                  0x000184          0x6 build\UDB5\estAltitude.o
 __c30_signature
                  0x00018a          0x6 build\UDB5\estLocation.o
 __c30_signature
                  0x000190          0x6 build\UDB5\estWind.o
 __c30_signature
                  0x000196          0x6 build\UDB5\estYawDrift.o
 __c30_signature
                  0x00019c          0x6 build\UDB5\gpsData.o
 __c30_signature
                  0x0001a2          0x6 build\UDB5\gpsParseCommon.o
 __c30_signature
                  0x0001a8          0x6 build\UDB5\gpsParseMTEK.o
 __c30_signature
                  0x0001ae          0x6 build\UDB5\gpsParseNMEA.o
 __c30_signature
                  0x0001b4          0x6 build\UDB5\gpsParseSTD.o
 __c30_signature
                  0x0001ba          0x6 build\UDB5\gpsParseUBX.o
 __c30_signature
                  0x0001c0          0x6 build\UDB5\hilsim.o
 __c30_signature
                  0x0001c6          0x6 build\UDB5\libDCM.o
 __c30_signature
                  0x0001cc          0x6 build\UDB5\mathlib.o
 __c30_signature
                  0x0001d2          0x6 build\UDB5\mathlibNAV.o
 __c30_signature
                  0x0001d8          0x6 build\UDB5\rmat.o
 __c30_signature
                  0x0001de          0x6 build\UDB5\24LC256.o
 __c30_signature
                  0x0001e4          0x6 build\UDB5\ADchannel.o
 __c30_signature
                  0x0001ea          0x6 build\UDB5\analog2digital_auav3.o
 __c30_signature
                  0x0001f0          0x6 build\UDB5\analog2digital_udb4.o
 __c30_signature
                  0x0001f6          0x6 build\UDB5\analog2digital_udb5.o
 __c30_signature
                  0x0001fc          0x6 build\UDB5\analogs.o
 __c30_signature
                  0x000202          0x6 build\UDB5\background.o
 __c30_signature
                  0x000208          0x6 build\UDB5\barometer.o
 __c30_signature
                  0x00020e          0x6 build\UDB5\eeprom_udb4.o
 __c30_signature
                  0x000214          0x6 build\UDB5\events.o
 __c30_signature
                  0x00021a          0x6 build\UDB5\heartbeat.o
 __c30_signature
                  0x000220          0x6 build\UDB5\I2C1.o
 __c30_signature
                  0x000226          0x6 build\UDB5\I2C2.o
 __c30_signature
                  0x00022c          0x6 build\UDB5\libUDB.o
 __c30_signature
                  0x000232          0x6 build\UDB5\magnetometer.o
 __c30_signature
                  0x000238          0x6 build\UDB5\mcu.o
 __c30_signature
                  0x00023e          0x6 build\UDB5\mpu6000.o
 __c30_signature
                  0x000244          0x6 build\UDB5\mpu_spi.o
 __c30_signature
                  0x00024a          0x6 build\UDB5\osd.o
 __c30_signature
                  0x000250          0x6 build\UDB5\osd_bit.o
 __c30_signature
                  0x000256          0x6 build\UDB5\osd_spi.o
 __c30_signature
                  0x00025c          0x6 build\UDB5\radioIn.o
 __c30_signature
                  0x000262          0x6 build\UDB5\read.o
 __c30_signature
                  0x000268          0x6 build\UDB5\serialIO.o
 __c30_signature
                  0x00026e          0x6 build\UDB5\servoOut.o
 __c30_signature
                  0x000274          0x6 build\UDB5\sonarIn.o
 __c30_signature
                  0x00027a          0x6 build\UDB5\traps.o
 __c30_signature
                  0x000280          0x6 build\UDB5\uart.o
 __c30_signature
                  0x000286          0x6 build\UDB5\write.o
 __c30_signature
                  0x00028c          0x6 build\UDB5\AT45D.o
 __c30_signature
                  0x000292          0x6 build\UDB5\AT45D_DMA.o
 __c30_signature
                  0x000298          0x6 build\UDB5\AT45D_FS.o
 __c30_signature
                  0x00029e          0x6 build\UDB5\EEPROM.o
 __c30_signature
                  0x0002a4          0x6 build\UDB5\EEPROM_FS.o
 __c30_signature
                  0x0002aa          0x6 build\UDB5\filesys.o
 __c30_signature
                  0x0002b0          0x6 build\UDB5\MDD_AT45D.o
 __c30_signature
                  0x0002b6          0x6 build\UDB5\MDD_EEPROM.o
 __c30_signature
                  0x0002bc          0x6 build\UDB5\usb.o
 __c30_signature
                  0x0002c2          0x6 build\UDB5\usb_cdc.o
 __c30_signature
                  0x0002c8          0x6 build\UDB5\usb_descriptors.o
 __c30_signature
                  0x0002ce          0x6 build\UDB5\usb_msd.o
 __c30_signature
                  0x0002d4          0x6 build\UDB5\FSIO.o
 __c30_signature
                  0x0002da          0x6 build\UDB5\SD-SPI.o
 __c30_signature
                  0x0002e0          0x6 build\UDB5\usb_device.o
 __c30_signature
                  0x0002e6          0x6 build\UDB5\usb_hal_dspic33e.o
 __c30_signature
                  0x0002ec          0x6 build\UDB5\usb_function_cdc.o
 __c30_signature
                  0x0002f2          0x6 build\UDB5\usb_function_msd.o
 __c30_signature
                  0x0002f8          0x6 c:/program files (x86)/microchip/mplab c30/bin/bin/../../lib/dsPIC33F\libp33FJ256GP710A-coff.a(CloseSPI2.o)
 __c30_signature
                  0x0002fe          0x6 c:/program files (x86)/microchip/mplab c30/bin/bin/../../lib/dsPIC33F\libp33FJ256GP710A-coff.a(ConfigIntSPI2.o)
 __c30_signature
                  0x000304          0x6 c:/program files (x86)/microchip/mplab c30/bin/bin/../../lib/dsPIC33F\libp33FJ256GP710A-coff.a(OpenSPI2.o)
 __c30_signature
                  0x00030a          0x6 c:/program files (x86)/microchip/mplab c30/bin/bin/../../lib\liblega-pic30-coff.a(crt0_standard.o)
 __c30_signature
                  0x000310          0x6 c:/program files (x86)/microchip/mplab c30/bin/bin/../../lib\liblega-pic30-coff.a(delay32.Lo)
 __c30_signature
                  0x000316          0x6 c:/program files (x86)/microchip/mplab c30/bin/bin/../../lib\liblega-pic30-coff.a(c30_uart.Lo)
 __c30_signature
                  0x00031c          0x6 c:/program files (x86)/microchip/mplab c30/bin/bin/../../lib\liblega-pic30-coff.a(data_init_standard.o)
 __c30_signature
                  0x000322          0x6 c:/program files (x86)/microchip/mplab c30/bin/bin/../../lib\libm-coff.a(fixsfsi.o)
 __c30_signature
                  0x000328          0x6 c:/program files (x86)/microchip/mplab c30/bin/bin/../../lib\libm-coff.a(mulsf3.o)
 __c30_signature
                  0x00032e          0x6 c:/program files (x86)/microchip/mplab c30/bin/bin/../../lib\libm-coff.a(floatsisf.o)
 __c30_signature
                  0x000334          0x6 c:/program files (x86)/microchip/mplab c30/bin/bin/../../lib\libm-coff.a(addsf3.o)
 __c30_signature
                  0x00033a          0x6 c:/program files (x86)/microchip/mplab c30/bin/bin/../../lib\libm-coff.a(divsf3.o)
 __c30_signature
                  0x000340          0x6 c:/program files (x86)/microchip/mplab c30/bin/bin/../../lib\libm-coff.a(fixunssfsi.o)
 __c30_signature
                  0x000346          0x6 c:/program files (x86)/microchip/mplab c30/bin/bin/../../lib\libm-coff.a(divsi3.o)
 __c30_signature
                  0x00034c          0x6 c:/program files (x86)/microchip/mplab c30/bin/bin/../../lib\libm-coff.a(fgtge.o)
 __c30_signature
                  0x000352          0x6 c:/program files (x86)/microchip/mplab c30/bin/bin/../../lib\libm-coff.a(modsi3.o)
 __c30_signature
                  0x000358          0x6 c:/program files (x86)/microchip/mplab c30/bin/bin/../../lib\libm-coff.a(sqrtf.o)
 __c30_signature
                  0x00035e          0x6 c:/program files (x86)/microchip/mplab c30/bin/bin/../../lib\libm-coff.a(powf.o)
 __c30_signature
                  0x000364          0x6 c:/program files (x86)/microchip/mplab c30/bin/bin/../../lib\libm-coff.a(divmoddi3.o)
 __c30_signature
                  0x00036a          0x6 c:/program files (x86)/microchip/mplab c30/bin/bin/../../lib\libm-coff.a(udivsi3.o)
 __c30_signature
                  0x000370          0x6 c:/program files (x86)/microchip/mplab c30/bin/bin/../../lib\libm-coff.a(funpack.o)
 __c30_signature
                  0x000376          0x6 c:/program files (x86)/microchip/mplab c30/bin/bin/../../lib\libm-coff.a(funpack2.o)
 __c30_signature
                  0x00037c          0x6 c:/program files (x86)/microchip/mplab c30/bin/bin/../../lib\libm-coff.a(futil.o)
 __c30_signature
                  0x000382          0x6 c:/program files (x86)/microchip/mplab c30/bin/bin/../../lib\libm-coff.a(fpack.o)
 __c30_signature
                  0x000388          0x6 c:/program files (x86)/microchip/mplab c30/bin/bin/../../lib\libm-coff.a(fcompare.o)
 __c30_signature
                  0x00038e          0x6 c:/program files (x86)/microchip/mplab c30/bin/bin/../../lib\libm-coff.a(umodsi3.o)
 __c30_signature
                  0x000394          0x6 c:/program files (x86)/microchip/mplab c30/bin/bin/../../lib\libm-coff.a(errno.o)
 __c30_signature
                  0x00039a          0x6 c:/program files (x86)/microchip/mplab c30/bin/bin/../../lib\libm-coff.a(fchop.o)
 __c30_signature
                  0x0003a0          0x6 c:/program files (x86)/microchip/mplab c30/bin/bin/../../lib\libm-coff.a(_frexpf.o)
 __c30_signature
                  0x0003a6          0x6 c:/program files (x86)/microchip/mplab c30/bin/bin/../../lib\libm-coff.a(feqltle.o)
 __c30_signature
                  0x0003ac          0x6 c:/program files (x86)/microchip/mplab c30/bin/bin/../../lib\libm-coff.a(ldexpf.o)
 __c30_signature
                  0x0003b2          0x6 c:/program files (x86)/microchip/mplab c30/bin/bin/../../lib\libm-coff.a(logf.o)
 __c30_signature
                  0x0003b8          0x6 c:/program files (x86)/microchip/mplab c30/bin/bin/../../lib\libm-coff.a(expf.o)
 __c30_signature
                  0x0003be          0x6 c:/program files (x86)/microchip/mplab c30/bin/bin/../../lib\liblega-c-coff.a(strchr.XXo)
 __c30_signature
                  0x0003c4          0x6 c:/program files (x86)/microchip/mplab c30/bin/bin/../../lib\liblega-c-coff.a(puts.XXo)
 __c30_signature
                  0x0003ca          0x6 c:/program files (x86)/microchip/mplab c30/bin/bin/../../lib\liblega-c-coff.a(setjmp.XXo)
 __c30_signature
                  0x0003d0          0x6 c:/program files (x86)/microchip/mplab c30/bin/bin/../../lib\liblega-c-coff.a(xassert.XXo)
 __c30_signature
                  0x0003d6          0x6 c:/program files (x86)/microchip/mplab c30/bin/bin/../../lib\liblega-c-coff.a(strlen.XXo)
 __c30_signature
                  0x0003dc          0x6 c:/program files (x86)/microchip/mplab c30/bin/bin/../../lib\liblega-c-coff.a(strtol.XXo)
 __c30_signature
                  0x0003e2          0x6 c:/program files (x86)/microchip/mplab c30/bin/bin/../../lib\liblega-c-coff.a(xstod.XXo)
 __c30_signature
                  0x0003e8          0x6 c:/program files (x86)/microchip/mplab c30/bin/bin/../../lib\liblega-c-coff.a(strcmp.XXo)
 __c30_signature
                  0x0003ee          0x6 c:/program files (x86)/microchip/mplab c30/bin/bin/../../lib\liblega-c-coff.a(strncpy.XXo)
 __c30_signature
                  0x0003f4          0x6 c:/program files (x86)/microchip/mplab c30/bin/bin/../../lib\liblega-c-coff.a(fopen.XXo)
 __c30_signature
                  0x0003fa          0x6 c:/program files (x86)/microchip/mplab c30/bin/bin/../../lib\liblega-c-coff.a(fclose.XXo)
 __c30_signature
                  0x000400          0x6 c:/program files (x86)/microchip/mplab c30/bin/bin/../../lib\liblega-c-coff.a(fwrite.XXo)
 __c30_signature
                  0x000406          0x6 c:/program files (x86)/microchip/mplab c30/bin/bin/../../lib\liblega-c-coff.a(xstoul.XXo)
 __c30_signature
                  0x00040c          0x6 c:/program files (x86)/microchip/mplab c30/bin/bin/../../lib\liblega-c-coff.a(memset.XXo)
 __c30_signature
                  0x000412          0x6 c:/program files (x86)/microchip/mplab c30/bin/bin/../../lib\liblega-c-coff.a(printf_cdnopsuxX.XXo)
 __c30_signature
                  0x000418          0x6 c:/program files (x86)/microchip/mplab c30/bin/bin/../../lib\liblega-c-coff.a(sprintf_cdfFnopuxX.XXo)
 __c30_signature
                  0x00041e          0x6 c:/program files (x86)/microchip/mplab c30/bin/bin/../../lib\liblega-c-coff.a(xfiles.XXo)
 __c30_signature
                  0x000424          0x6 c:/program files (x86)/microchip/mplab c30/bin/bin/../../lib\liblega-c-coff.a(fputs.XXo)
 __c30_signature
                  0x00042a          0x6 c:/program files (x86)/microchip/mplab c30/bin/bin/../../lib\liblega-c-coff.a(fputc.XXo)
 __c30_signature
                  0x000430          0x6 c:/program files (x86)/microchip/mplab c30/bin/bin/../../lib\liblega-c-coff.a(fflush.XXo)
 __c30_signature
                  0x000436          0x6 c:/program files (x86)/microchip/mplab c30/bin/bin/../../lib\liblega-c-coff.a(raise.XXo)
 __c30_signature
                  0x00043c          0x6 c:/program files (x86)/microchip/mplab c30/bin/bin/../../lib\liblega-c-coff.a(exit.XXo)
 __c30_signature
                  0x000442          0x6 c:/program files (x86)/microchip/mplab c30/bin/bin/../../lib\liblega-c-coff.a(xstopfx.XXo)
 __c30_signature
                  0x000448          0x6 c:/program files (x86)/microchip/mplab c30/bin/bin/../../lib\liblega-c-coff.a(xstoflt.XXo)
 __c30_signature
                  0x00044e          0x6 c:/program files (x86)/microchip/mplab c30/bin/bin/../../lib\liblega-c-coff.a(xstoxflt.XXo)
 __c30_signature
                  0x000454          0x6 c:/program files (x86)/microchip/mplab c30/bin/bin/../../lib\liblega-c-coff.a(xfdscale.XXo)
 __c30_signature
                  0x00045a          0x6 c:/program files (x86)/microchip/mplab c30/bin/bin/../../lib\liblega-c-coff.a(xdtento.XXo)
 __c30_signature
                  0x000460          0x6 c:/program files (x86)/microchip/mplab c30/bin/bin/../../lib\liblega-c-coff.a(memcpy.XXo)
 __c30_signature
                  0x000466          0x6 c:/program files (x86)/microchip/mplab c30/bin/bin/../../lib\liblega-c-coff.a(xfofind.XXo)
 __c30_signature
                  0x00046c          0x6 c:/program files (x86)/microchip/mplab c30/bin/bin/../../lib\liblega-c-coff.a(xfoprep.XXo)
 __c30_signature
                  0x000472          0x6 c:/program files (x86)/microchip/mplab c30/bin/bin/../../lib\liblega-c-coff.a(xatexit.XXo)
 __c30_signature
                  0x000478          0x6 c:/program files (x86)/microchip/mplab c30/bin/bin/../../lib\liblega-c-coff.a(free.XXo)
 __c30_signature
                  0x00047e          0x6 c:/program files (x86)/microchip/mplab c30/bin/bin/../../lib\liblega-c-coff.a(xfwprep.XXo)
 __c30_signature
                  0x000484          0x6 c:/program files (x86)/microchip/mplab c30/bin/bin/../../lib\liblega-c-coff.a(memchr.XXo)
 __c30_signature
                  0x00048a          0x6 c:/program files (x86)/microchip/mplab c30/bin/bin/../../lib\liblega-c-coff.a(strrchr.XXo)
 __c30_signature
                  0x000490          0x6 c:/program files (x86)/microchip/mplab c30/bin/bin/../../lib\liblega-c-coff.a(signal.XXo)
 __c30_signature
                  0x000496          0x6 c:/program files (x86)/microchip/mplab c30/bin/bin/../../lib\liblega-c-coff.a(xfdnorm.XXo)
 __c30_signature
                  0x00049c          0x6 c:/program files (x86)/microchip/mplab c30/bin/bin/../../lib\liblega-c-coff.a(xfdunsca.XXo)
 __c30_signature
                  0x0004a2          0x6 c:/program files (x86)/microchip/mplab c30/bin/bin/../../lib\liblega-c-coff.a(xferaise.XXo)
 __c30_signature
                  0x0004a8          0x6 c:/program files (x86)/microchip/mplab c30/bin/bin/../../lib\liblega-c-coff.a(xvacopy.XXo)
 __c30_signature
                  0x0004ae          0x6 c:/program files (x86)/microchip/mplab c30/bin/bin/../../lib\liblega-c-coff.a(xputtxt.XXo)
 __c30_signature
                  0x0004b4          0x6 c:/program files (x86)/microchip/mplab c30/bin/bin/../../lib\liblega-c-coff.a(malloc.XXo)
 __c30_signature
                  0x0004ba          0x6 c:/program files (x86)/microchip/mplab c30/bin/bin/../../lib\liblega-c-coff.a(xfopen.XXo)
 __c30_signature
                  0x0004c0          0x6 c:/program files (x86)/microchip/mplab c30/bin/bin/../../lib\liblega-c-coff.a(xlitob.XXo)
 __c30_signature
                  0x0004c6          0x6 c:/program files (x86)/microchip/mplab c30/bin/bin/../../lib\liblega-c-coff.a(xgetmem.XXo)
 __c30_signature
                  0x0004cc          0x6 c:/program files (x86)/microchip/mplab c30/bin/bin/../../lib\liblega-c-coff.a(xldunsca.XXo)
 __c30_signature
                  0x0004d2          0x6 c:/program files (x86)/microchip/mplab c30/bin/bin/../../lib\liblega-c-coff.a(ldiv.XXo)
 __c30_signature
                  0x0004d8          0x6 c:/program files (x86)/microchip/mplab c30/bin/bin/../../lib\liblega-c-coff.a(xdnorm.XXo)
 __c30_signature
                  0x0004de          0x6 c:/program files (x86)/microchip/mplab c30/bin/bin/../../lib\liblega-c-coff.a(div.XXo)
 __c30_signature
                  0x0004e4          0x6 c:/program files (x86)/microchip/mplab c30/bin/bin/../../lib\liblega-pic30-coff.a(close.Lo)
 __c30_signature
                  0x0004ea          0x6 c:/program files (x86)/microchip/mplab c30/bin/bin/../../lib\liblega-pic30-coff.a(remove.Lo)
 __c30_signature
                  0x0004f0          0x6 c:/program files (x86)/microchip/mplab c30/bin/bin/../../lib\liblega-pic30-coff.a(_exit.Lo)
 __c30_signature
                  0x0004f6          0x6 c:/program files (x86)/microchip/mplab c30/bin/bin/../../lib\liblega-pic30-coff.a(open.Lo)
 __c30_signature
                  0x0004fc          0x6 c:/program files (x86)/microchip/mplab c30/bin/bin/../../lib\liblega-pic30-coff.a(sbrk.Lo)
 __c30_signature
                  0x000502          0x6 c:/program files (x86)/microchip/mplab c30/bin/bin/../../lib\liblega-pic30-coff.a(brk.Lo)
 __c30_signature
                  0x000508          0x6 c:/program files (x86)/microchip/mplab c30/bin/bin/../../lib\libm-coff.a(mulsi3.o)
 __c30_signature
                  0x00050e          0x6 c:/program files (x86)/microchip/mplab c30/bin/bin/../../lib\libm-coff.a(extendsfdf.o)
 __c30_signature
                  0x000514          0x6 c:/program files (x86)/microchip/mplab c30/bin/bin/../../lib\libm-coff.a(deqltle.o)
 __c30_signature
                  0x00051a          0x6 c:/program files (x86)/microchip/mplab c30/bin/bin/../../lib\libm-coff.a(muldf3.o)
 __c30_signature
                  0x000520          0x6 c:/program files (x86)/microchip/mplab c30/bin/bin/../../lib\libm-coff.a(divdf3.o)
 __c30_signature
                  0x000526          0x6 c:/program files (x86)/microchip/mplab c30/bin/bin/../../lib\libm-coff.a(fixdfsi.o)
 __c30_signature
                  0x00052c          0x6 c:/program files (x86)/microchip/mplab c30/bin/bin/../../lib\libm-coff.a(floatsidf.o)
 __c30_signature
                  0x000532          0x6 c:/program files (x86)/microchip/mplab c30/bin/bin/../../lib\libm-coff.a(subdf3.o)
 __c30_signature
                  0x000538          0x6 c:/program files (x86)/microchip/mplab c30/bin/bin/../../lib\libm-coff.a(dgtge.o)
 __c30_signature
                  0x00053e          0x6 c:/program files (x86)/microchip/mplab c30/bin/bin/../../lib\libm-coff.a(muldi3.o)
 __c30_signature
                  0x000544          0x6 c:/program files (x86)/microchip/mplab c30/bin/bin/../../lib\libm-coff.a(dcompare.o)
 __c30_signature
                  0x00054a          0x6 c:/program files (x86)/microchip/mplab c30/bin/bin/../../lib\libm-coff.a(dunpack2.o)
 __c30_signature
                  0x000550          0x6 c:/program files (x86)/microchip/mplab c30/bin/bin/../../lib\libm-coff.a(dpack.o)
 __c30_signature
                  0x000556          0x6 c:/program files (x86)/microchip/mplab c30/bin/bin/../../lib\libm-coff.a(dunpack.o)
 __c30_signature
                  0x00055c          0x6 c:/program files (x86)/microchip/mplab c30/bin/bin/../../lib\libm-coff.a(floatdidf.o)
 __c30_signature
                  0x000562          0x6 c:/program files (x86)/microchip/mplab c30/bin/bin/../../lib\libm-coff.a(adddf3.o)
 __c30_signature
                  0x000568          0x6 c:/program files (x86)/microchip/mplab c30/bin/bin/../../lib\libm-coff.a(umuldi3.o)
 __c30_signature
                  0x00056e          0x6 c:/program files (x86)/microchip/mplab c30/bin/bin/../../lib\libm-coff.a(dtype.o)
 __c30_signature
                  0x000574          0x6 c:/program files (x86)/microchip/mplab c30/bin/bin/../../lib\libm-coff.a(dpropagateNaN.o)
 __c30_signature
                  0x00057a          0x6 c:/program files (x86)/microchip/mplab c30/bin/bin/../../lib\liblega-c-coff.a(xputfld_cdfFnopsuxX.XXo)
 __c30_signature
                  0x000580          0x6 c:/program files (x86)/microchip/mplab c30/bin/bin/../../lib\liblega-c-coff.a(xprintf_cdfFnopsuxX.XXo)
 __c30_signature
                  0x000586          0x6 c:/program files (x86)/microchip/mplab c30/bin/bin/../../lib\liblega-c-coff.a(xldtob_cdfFnopsuxX.XXo)
 __c30_signature
                  0x00058c          0x6 c:/program files (x86)/microchip/mplab c30/bin/bin/../../lib\liblega-c-coff.a(xgenld_cdfFnopsuxX.XXo)

_0299362056203908
                    0x7fc0          0xc
 _0299362056203908
                    0x7fc0          0xc build\UDB5\analog2digital_udb5.o
                    0x7fc0                  BufferB

_029934d056203908
                    0x7fe0          0xc
 _029934d056203908
                    0x7fe0          0xc build\UDB5\analog2digital_udb5.o
                    0x7fe0                  BufferA

_028038c056203912
                    0x0800          0x4
 _028038c056203912
                    0x0800          0x4 build\UDB5\mcu.o
                    0x0800                  trap_source

_028037e056203912
                    0x0804          0x2
 _028037e056203912
                    0x0804          0x2 build\UDB5\mcu.o
                    0x0804                  trap_flags

_0280393056203912
                    0x0806          0x2
 _0280393056203912
                    0x0806          0x2 build\UDB5\mcu.o
                    0x0806                  osc_fail_count

.nbss               0x0808          0x2
 .nbss              0x0808          0x2 c:/program files (x86)/microchip/mplab c30/bin/bin/../../lib\libm-coff.a(errno.o)
                    0x0808                  errno

.bss                0x080a        0x41a
 .bss               0x080a        0x41a build\UDB5\telemetry_log.o

_0363c31056203929
                    0x0c24        0x200
 _0363c31056203929
                    0x0c24        0x200 build\UDB5\FSIO.o
                    0x0c24                  gDataBuffer

_0363c46056203929
                    0x0e24        0x200
 _0363c46056203929
                    0x0e24        0x200 build\UDB5\FSIO.o
                    0x0e24                  gFATBuffer

.bss                0x1024        0x22c
 .bss               0x1024        0x17c build\UDB5\FSIO.o
                    0x1024                  gFileArray
                    0x10c6                  gFileSlotOpen
                    0x10ca                  FatRootDirClusterValue
                    0x10ce                  FSerrno
                    0x10d0                  TempClusterCalc
                    0x10d4                  dirCleared
                    0x10d6                  tempCWDobj
                    0x110c                  gFileTemp
                    0x1142                  cwd
                    0x1178                  gDiskData
                    0x119c                  asciiFilename
                    0x119e                  fileNameLength
 .bss               0x11a0         0xb0 build\UDB5\config.o
                    0x11a0                  gains
                    0x11e2                  altit
                    0x1206                  hover
                    0x122e                  turns
                    0x124e                  settings

.data               0x1250         0x88
 .data              0x1250         0x88 c:/program files (x86)/microchip/mplab c30/bin/bin/../../lib\liblega-c-coff.a(xfiles.XXo)
                    0x1250                  _Files
                    0x1260                  _Stderr
                    0x1288                  _Stdout
                    0x12b0                  _Stdin

.bss                0x12d8         0xc8
 .bss               0x12d8         0x68 build\UDB5\flightplan-logo.o
                    0x1310                  logoStack
 .bss               0x1340         0x60 build\UDB5\events.o
                    0x1340                  events

.data               0x13a0         0xda
 .data              0x13a0         0x4a c:/program files (x86)/microchip/mplab c30/bin/bin/../../lib\liblega-c-coff.a(xstoul.XXo)
 .data              0x13ea         0x48 build\UDB5\rmat.o
                    0x13f6                  rmat
                    0x1408                  omegagyro
                    0x140e                  accelEarth
                    0x1414                  omegaAccum
                    0x1420                  aero_force
                    0x1426                  dirOverGndHGPS
                    0x142c                  dirOverGndHrmat
 .data              0x1432         0x48 c:/program files (x86)/microchip/mplab c30/bin/bin/../../lib\liblega-c-coff.a(xldtob_cdfFnopsuxX.XXo)

.bss                0x147a         0xc8
 .bss               0x147a         0x46 build\UDB5\ADchannel.o
                    0x147a                  udb_xaccel
                    0x1484                  udb_yaccel
                    0x148e                  udb_zaccel
                    0x1498                  udb_xrate
                    0x14a2                  udb_yrate
                    0x14ac                  udb_zrate
                    0x14b6                  udb_vref
 .bss               0x14c0         0x44 c:/program files (x86)/microchip/mplab c30/bin/bin/../../lib\liblega-c-coff.a(exit.XXo)
 .bss               0x1504         0x3e build\UDB5\analog2digital_udb5.o
                    0x1504                  udb_analogInputs
                    0x152c                  udb_vcc
                    0x1536                  udb_5v
                    0x1540                  sample_count

.data               0x1542         0x38
 .data              0x1542         0x38 build\UDB5\deadReckoning.o
                    0x1542                  dead_reckon_clock
                    0x1544                  IMUvelocityx
                    0x1548                  IMUvelocityy
                    0x154c                  IMUvelocityz
                    0x1550                  forward_ground_speed
                    0x1552                  IMUlocationx
                    0x1556                  IMUlocationy
                    0x155a                  IMUlocationz
                    0x155e                  IMUintegralAccelerationx
                    0x1562                  IMUintegralAccelerationy
                    0x1566                  IMUintegralAccelerationz
                    0x156a                  air_speed_3DIMU
                    0x156c                  total_energy
                    0x156e                  locationErrorEarth
                    0x1574                  velocityErrorEarth

.bss                0x157a         0x34
 .bss               0x157a         0x34 build\UDB5\rmat.o

.data               0x15ae         0x2e
 .data              0x15ae         0x2e c:/program files (x86)/microchip/mplab c30/bin/bin/../../lib\liblega-c-coff.a(xstoxflt.XXo)

.bss                0x15dc         0x58
 .bss               0x15dc         0x2c build\UDB5\gpsData.o
                    0x15dc                  gps_data_age
                    0x15de                  actual_dir
                    0x15df                  calculated_heading
                    0x15e0                  hilsim_airspeed
                    0x15e2                  lat_origin
                    0x15e6                  lon_origin
                    0x15ea                  alt_origin
                    0x15ee                  lat_gps
                    0x15f2                  lon_gps
                    0x15f6                  alt_sl_gps
                    0x15fa                  hdop
                    0x15fb                  svs
                    0x15fc                  week_no
                    0x15fe                  sog_gps
                    0x1600                  cog_gps
                    0x1602                  climb_gps
                    0x1604                  tow
 .bss               0x1608         0x2c build\UDB5\radioIn.o
                    0x161c                  udb_pwIn
                    0x1628                  udb_pwTrim

.dconst             0x1634         0x28
 .dconst            0x1634         0x28 c:/program files (x86)/microchip/mplab c30/bin/bin/../../lib\liblega-c-coff.a(xassert.XXo)

.data               0x165c         0x28
 .data              0x165c         0x28 c:/program files (x86)/microchip/mplab c30/bin/bin/../../lib\liblega-c-coff.a(xfoprep.XXo)

.bss                0x1684         0x6c
 .bss               0x1684         0x26 build\UDB5\flightplan-waypoints.o
 .bss               0x16aa         0x24 build\UDB5\main.o
 .bss               0x16ce         0x22 build\UDB5\gpsParseCommon.o
                    0x16d6                  lat_gps_
                    0x16da                  lon_gps_
                    0x16de                  alt_sl_gps_
                    0x16e2                  hdop_
                    0x16e4                  tow_
                    0x16e8                  date_gps_
                    0x16ec                  time_gps_

.data               0x16f0         0x42
 .data              0x16f0         0x22 c:/program files (x86)/microchip/mplab c30/bin/bin/../../lib\liblega-c-coff.a(xlitob.XXo)
 .data              0x1712         0x20 c:/program files (x86)/microchip/mplab c30/bin/bin/../../lib\liblega-c-coff.a(xstoflt.XXo)

.bss                0x1732         0x3c
 .bss               0x1732         0x1e build\UDB5\navigate.o
                    0x1746                  turngainfbw
                    0x1748                  turngainnav
                    0x174a                  yawkpail
                    0x174c                  yawkprud
                    0x174e                  desired_bearing_over_ground
 .bss               0x1750         0x1e build\UDB5\mpu6000.o
                    0x1752                  vref_adj
                    0x1754                  mpu_temp
                    0x175e                  mpu_data

.data               0x176e         0x32
 .data              0x176e         0x1a build\UDB5\magnetometer.o
                    0x176e                  udb_magOffset
                    0x1774                  udb_staticMagOffset
                    0x177a                  magGain
                    0x1780                  rawMagCalib
                    0x1786                  magMessage
 .data              0x1788         0x18 c:/program files (x86)/microchip/mplab c30/bin/bin/../../lib\liblega-c-coff.a(xdtento.XXo)

.bss                0x17a0         0x16
 .bss               0x17a0         0x16 build\UDB5\altitudeCntrl.o
                    0x17a0                  desiredHeight
                    0x17a2                  height_target_min
                    0x17a4                  height_target_max
                    0x17a6                  height_margin
                    0x17a8                  alt_hold_throttle_min
                    0x17aa                  alt_hold_throttle_max
                    0x17ac                  alt_hold_pitch_min
                    0x17ae                  alt_hold_pitch_max
                    0x17b0                  alt_hold_pitch_high
                    0x17b2                  rtl_pitch_down
                    0x17b4                  desiredSpeed

.data               0x17b6         0x16
 .data              0x17b6         0x16 build\UDB5\config.o

.bss                0x17cc         0x16
 .bss               0x17cc         0x16 build\UDB5\helicalTurnCntrl.o
                    0x17d0                  tiltError
                    0x17d6                  desiredRotationRateRadians
                    0x17dc                  rotationRateError

.data               0x17e2         0x16
 .data              0x17e2         0x16 build\UDB5\gpsData.o
                    0x17e2                  GPSlocation
                    0x17e8                  GPSvelocity
                    0x17ee                  cos_lat
                    0x17f0                  ground_velocity_magnitudeXY
                    0x17f2                  forward_acceleration
                    0x17f4                  air_speed_magnitudeXY
                    0x17f6                  air_speed_3DGPS

.bss                0x17f8         0x16
 .bss               0x17f8         0x16 build\UDB5\I2C2.o

.bss                0x7fcc         0x14
 .bss               0x7fcc         0x14 build\UDB5\gpsParseSTD.o
                    0x7fcc                  payloadlength
                    0x7fce                  un
                    0x7fcf                  svs_
                    0x7fd0                  nav_valid_
                    0x7fd2                  nav_type_
                    0x7fd4                  sog_gps_
                    0x7fd6                  climb_gps_
                    0x7fd8                  week_no_
                    0x7fda                  cog_gps_
                    0x7fdc                  checksum_
                    0x7fde                  calculated_checksum

.bss                0x7fec         0x12
 .bss               0x7fec         0x12 build\UDB5\airspeedCntrl.o
                    0x7fec                  minimum_airspeed
                    0x7fee                  maximum_airspeed
                    0x7ff0                  cruise_airspeed
                    0x7ff2                  airspeed_pitch_min_aspd
                    0x7ff4                  airspeed_pitch_max_aspd
                    0x7ff6                  minimum_groundspeed
                    0x7ff8                  airspeed_pitch_adjust_rate
                    0x7ffa                  airspeed_pitch_ki_limit
                    0x7ffc                  airspeed_pitch_ki

.bss                0x180e         0x24
 .bss               0x180e         0x12 build\UDB5\flight_state.o
 .bss               0x1820         0x12 build\UDB5\estAltitude.o
                    0x1820                  barometer_altitude
                    0x1824                  barometer_agl_altitude
                    0x1828                  barometer_pressure
                    0x182c                  barometer_temperature
                    0x182e                  sea_level_pressure

.data               0x1832         0x24
 .data              0x1832         0x12 build\UDB5\FSIO.o
                    0x1832                  gLastFATSectorRead
                    0x1836                  gNeedFATWrite
                    0x1838                  gBufferOwner
                    0x183a                  gLastDataSectorRead
                    0x183e                  gNeedDataWrite
                    0x183f                  nextClusterIsLast
                    0x1840                  gBufferZeroed
                    0x1841                  recache
                    0x1842                  cwdptr
 .data              0x1844         0x12 c:/program files (x86)/microchip/mplab c30/bin/bin/../../lib\liblega-c-coff.a(xprintf_cdfFnopsuxX.XXo)

.bss                0x1856         0x10
 .bss               0x1856         0x10 build\UDB5\I2C1.o

.dconst             0x1866         0x10
 .dconst            0x1866         0x10 c:/program files (x86)/microchip/mplab c30/bin/bin/../../lib\liblega-c-coff.a(xldtob_cdfFnopsuxX.XXo)

.bss                0x1876         0x6c
 .bss               0x1876          0xe build\UDB5\pitchCntrl.o
                    0x1876                  pitchgain
                    0x1878                  pitchfdfwd
                    0x187a                  pitchkd
                    0x187c                  hoverpitchgain
                    0x187e                  hoverpitchkd
                    0x1880                  pitchrate
                    0x1882                  elevInput
 .bss               0x1884          0xc build\UDB5\rollCntrl.o
                    0x1884                  yawkdail
                    0x1886                  rollkp
                    0x1888                  rollkpfdfwd
                    0x188a                  rollkd
                    0x188c                  hoverrollkp
                    0x188e                  hoverrollkd
 .bss               0x1890          0xc build\UDB5\yawCntrl.o
                    0x1890                  yawkdrud
                    0x1892                  rollkprud
                    0x1894                  rollkdrud
                    0x1896                  hoveryawkp
                    0x1898                  hoveryawkd
                    0x189a                  yawkpfdfwd
 .bss               0x189c          0xc build\UDB5\estLocation.o
 .bss               0x18a8          0xc build\UDB5\estWind.o
 .bss               0x18b4          0xc build\UDB5\magnetometer.o
                    0x18b4                  udb_magFieldBody
                    0x18ba                  magFieldRaw
 .bss               0x18c0          0xc build\UDB5\servoOut.o
                    0x18c2                  udb_pwOut
 .bss               0x18cc          0xc c:/program files (x86)/microchip/mplab c30/bin/bin/../../lib\liblega-c-coff.a(signal.XXo)
 .bss               0x18d8          0xa build\UDB5\behavior.o
                    0x18de                  current_orientation
                    0x18e0                  desired_behavior

.data               0x18e2         0x14
 .data              0x18e2          0xa build\UDB5\cameraCntrl.o
                    0x18e2                  cam_pitch_servo_pwm_delta
                    0x18e4                  cam_yaw_servo_pwm_delta
 .data              0x18ec          0xa build\UDB5\navigate.o
                    0x18ec                  tofinish_line
                    0x18ee                  progress_to_goal
                    0x18f0                  desired_dir
                    0x18f1                  extended_range
                    0x18f2                  togoal

.bss                0x18f6         0x14
 .bss               0x18f6          0xa build\UDB5\servoPrepare.o
                    0x18f6                  throttle_control
                    0x18f8                  pitch_control
                    0x18fa                  roll_control
                    0x18fc                  yaw_control
                    0x18fe                  wind_gain
 .bss               0x1900          0xa build\UDB5\mpu_spi.o

.data               0x190a         0x10
 .data              0x190a          0x8 build\UDB5\altitudeCntrl.o
                    0x190a                  throttleFiltered
                    0x190e                  pitchAltitudeAdjust
                    0x1910                  filterManual
 .data              0x1912          0x8 build\UDB5\states.o
                    0x1912                  waggle

.bss                0x191a         0x10
 .bss               0x191a          0x8 build\UDB5\background.o
 .bss               0x1922          0x8 build\UDB5\serialIO.o

.data               0x192a          0x8
 .data              0x192a          0x8 c:/program files (x86)/microchip/mplab c30/bin/bin/../../lib\liblega-c-coff.a(xfopen.XXo)

.dconst             0x1932          0x8
 .dconst            0x1932          0x8 c:/program files (x86)/microchip/mplab c30/bin/bin/../../lib\liblega-c-coff.a(xprintf_cdfFnopsuxX.XXo)

.bss                0x193a          0x6
 .bss               0x193a          0x6 build\UDB5\cameraCntrl.o

.data               0x1940         0x12
 .data              0x1940          0x6 build\UDB5\estAltitude.o
                    0x1940                  barometer_pressure_gnd
                    0x1944                  barometer_temperature_gnd
 .data              0x1946          0x6 build\UDB5\estWind.o
                    0x1946                  estimatedWind
 .data              0x194c          0x6 build\UDB5\I2C1.o

.bss                0x1952         0x12
 .bss               0x1952          0x6 build\UDB5\EEPROM.o
 .bss               0x1958          0x6 build\UDB5\MDD_EEPROM.o
 .bss               0x195e          0x6 build\UDB5\traps_asm.o
                    0x195e                  JmpStckPtr
                    0x1960                  JmpAddrLow
                    0x1962                  JmpAddrHgh

.data               0x1964         0x14
 .data              0x1964          0x6 c:/program files (x86)/microchip/mplab c30/bin/bin/../../lib\liblega-c-coff.a(exit.XXo)
                    0x1964                  _Atcount
                    0x1966                  _Atfuns
 .data              0x196a          0x6 c:/program files (x86)/microchip/mplab c30/bin/bin/../../lib\liblega-c-coff.a(malloc.XXo)
                    0x196a                  _Size_block
                    0x196c                  _Aldata
 .data              0x1970          0x4 build\UDB5\flightplan-logo.o
 .data              0x1974          0x4 build\UDB5\flightplan-waypoints.o

.bss                0x1978          0x8
 .bss               0x1978          0x4 build\UDB5\servoMix.o
 .bss               0x197c          0x4 build\UDB5\states.o
                    0x197e                  state_flags

.data               0x1980          0x4
 .data              0x1980          0x4 build\UDB5\gpsParseSTD.o
                    0x1980                  msg_parse
                    0x1982                  store_index

.bss                0x1984          0x4
 .bss               0x1984          0x4 build\UDB5\libDCM.o
                    0x1984                  dcm_flags
                    0x1986                  angleOfAttack

.data               0x1988         0x10
 .data              0x1988          0x4 build\UDB5\heartbeat.o
                    0x1988                  one_hertz_flag
                    0x198a                  udb_heartbeat_counter
 .data              0x198c          0x4 build\UDB5\I2C2.o
 .data              0x1990          0x4 build\UDB5\mpu6000.o
                    0x1990                  mpuCnt
                    0x1992                  mpuDAV
 .data              0x1994          0x4 build\UDB5\traps.o
                    0x1994                  dmaErrFlag
                    0x1996                  dmaPWErrLoc

.data               0x7ffe          0x2
 .data              0x7ffe          0x2 build\UDB5\flightplan.o
                    0x7ffe                  waypointIndex

.bss                0x1998          0x4
 .bss               0x1998          0x2 build\UDB5\flightplan.o
 .bss               0x199a          0x2 build\UDB5\mode_switch.o

.data               0x199c          0xc
 .data              0x199c          0x2 build\UDB5\pitchCntrl.o
                    0x199c                  elevatorLoadingTrim
 .data              0x199e          0x2 build\UDB5\telemetry_log.o
 .data              0x19a0          0x2 build\UDB5\estLocation.o
 .data              0x19a2          0x2 build\UDB5\analog2digital_udb5.o
                    0x19a2                  DmaBuffer
 .data              0x19a4          0x2 build\UDB5\eeprom_udb4.o
 .data              0x19a6          0x2 build\UDB5\events.o
                    0x19a6                  event_init_done

.bss                0x19a8          0x2
 .bss               0x19a8          0x2 build\UDB5\libUDB.o
                    0x19a8                  udb_flags

.data               0x19aa          0x4
 .data              0x19aa          0x2 build\UDB5\mcu.o
                    0x19aa                  defaultCorcon
 .data              0x19ac          0x2 build\UDB5\mpu_spi.o

.bss                0x19ae          0x2
 .bss               0x19ae          0x2 build\UDB5\traps.o
                    0x19ae                  dmaRWErrLoc

.data               0x19b0          0x4
 .data              0x19b0          0x2 build\UDB5\EEPROM.o
 .data              0x19b2          0x2 c:/program files (x86)/microchip/mplab c30/bin/bin/../../lib\liblega-pic30-coff.a(c30_uart.Lo)
                    0x19b2                  __C30_UART

.bss                0x19b4          0x2
 .bss               0x19b4          0x2 c:/program files (x86)/microchip/mplab c30/bin/bin/../../lib\liblega-c-coff.a(fclose.XXo)

.data               0x19b6          0x4
 .data              0x19b6          0x2 c:/program files (x86)/microchip/mplab c30/bin/bin/../../lib\liblega-c-coff.a(ldiv.XXo)
 .data              0x19b8          0x2 c:/program files (x86)/microchip/mplab c30/bin/bin/../../lib\liblega-c-coff.a(div.XXo)

.bss                0x19ba          0x2
 .bss               0x19ba          0x2 c:/program files (x86)/microchip/mplab c30/bin/bin/../../lib\liblega-pic30-coff.a(brk.Lo)
                    0x19ba                  __curbrk

.dconst             0x19bc          0x2
 .dconst            0x19bc          0x2 c:/program files (x86)/microchip/mplab c30/bin/bin/../../lib\liblega-c-coff.a(xgenld_cdfFnopsuxX.XXo)

.const              0xbb22        0xab6 load address 0x003b22  
 .const             0xbb22        0x4d6 build\UDB5\minIni.o
 .const             0xbff8        0x186 build\UDB5\config.o
 .const             0xc17e         0xe0 build\UDB5\gpsParseSTD.o
                    0xc17e                  bin_mode
                    0xc19a                  mode
                    0xc1a4                  mode_length
                    0xc1a6                  msg41parse
 .const             0xc25e         0xce build\UDB5\EEPROM_FS.o
                    0xc25e                  BootSector
                    0xc29c                  FAT0
                    0xc29f                  RootDirectory0
 .const             0xc32c         0xa6 build\UDB5\EEPROM.o
 .const             0xc3d2         0x82 build\UDB5\mathlibNAV.o
                    0xc3d2                  sintab
 .const             0xc454         0x54 build\UDB5\flightplan-logo.o
                    0xc454                  instructions
                    0xc480                  rtlInstructions
 .const             0xc4a8         0x42 build\UDB5\flightplan-waypoints.o
                    0xc4a8                  waypoints
                    0xc4be                  rtlWaypoints
                    0xc4d4                  wp_inject_byte_order
 .const             0xc4ea         0x40 build\UDB5\telemetry_log.o
 .const             0xc52a         0x3c build\UDB5\filesys.o
 .const             0xc566         0x34 build\UDB5\mpu6000.o
 .const             0xc59a         0x20 build\UDB5\flight_state.o
 .const             0xc5ba         0x12 build\UDB5\cameraCntrl.o
                    0xc5ba                  pitch_servo_high_ratio
                    0xc5bc                  yaw_servo_high_ratio
                    0xc5be                  tan_pitch_in_stabilized_mode
                    0xc5c0                  pitch_offset_centred_pwm
                    0xc5c2                  yaw_offset_centred_pwm
                    0xc5c4                  pitch_servo_pwm_max
                    0xc5c6                  pitch_servo_pwm_min
                    0xc5c8                  yaw_servo_pwm_max
                    0xc5ca                  yaw_servo_pwm_min
 .const             0xc5cc          0xc build\UDB5\gpsParseCommon.o
                    0xc5cc                  days_in_month

.text             0x0045d8       0x8834
 .text            0x0045d8       0x38c4 build\UDB5\FSIO.o
                  0x0045d8                  FSInit
                  0x00462e                  FILEfind
                  0x004812                  FILEopen
                  0x00495c                  FILEget_next_cluster
                  0x004a34                  DISKmount
                  0x004afa                  LoadMBR
                  0x004d74                  LoadBootSector
                  0x0051ce                  GetFullClusterNumber
                  0x0051fc                  Write_File_Entry
                  0x0052b0                  FAT_erase_cluster_chain
                  0x0053a0                  Cache_File_Entry
                  0x0055da                  CreateFileEntry
                  0x00562e                  CreateFirstCluster
                  0x005678                  FindEmptyEntries
                  0x00577e                  PopulateEntries
                  0x005850                  FILEallocate_new_cluster
                  0x0058e8                  FATfindEmptyCluster
                  0x0059f2                  FSfclose
                  0x005afc                  IncrementTimeStamp
                  0x005bf0                  Fill_File_Object
                  0x005d50                  LoadDirAttrib
                  0x005dd6                  FILEerase
                  0x005ebc                  FSrename
                  0x005fbc                  FSfopen
                  0x00633a                  FSftell
                  0x00634e                  FSremove
                  0x00641a                  FSrewind
                  0x006450                  FSerror
                  0x00645c                  FileObjectCopy
                  0x006494                  FILECreateHeadCluster
                  0x006520                  EraseCluster
                  0x0065e0                  ReadByte
                  0x0065f2                  ReadWord
                  0x006626                  ReadDWord
                  0x00665a                  Cluster2Sector
                  0x0066f0                  FSattrib
                  0x006798                  FSfwrite
                  0x006a8a                  flushData
                  0x006ae8                  FSfeof
                  0x006b12                  FSfread
                  0x006d4e                  FormatFileName
                  0x006f60                  ValidateChars
                  0x007056                  FSfseek
                  0x0072f8                  ReadFAT
                  0x0076ea                  WriteFAT
                  0x007aca                  FindFirst
                  0x007ce6                  FindNext
 .text            0x007e9c       0x12d6 build\UDB5\minIni.o
                  0x007f3c                  strnicmp
                  0x008554                  ini_gets
                  0x0085c2                  ini_getl
                  0x008634                  ini_getf
                  0x008676                  ini_getbool
                  0x0086f2                  ini_getsection
                  0x008758                  ini_getkey
                  0x0087c0                  ini_browse
                  0x008c00                  ini_puts
                  0x009124                  ini_putl
                  0x009146                  ini_putf
 .text            0x009172       0x1006 build\UDB5\flightplan-logo.o
                  0x009172                  flightplan_logo_index_get
                  0x00917a                  flightplan_logo_init
                  0x009180                  flightplan_logo_begin
                  0x0092f0                  flightplan_logo_update
                  0x00a08e                  flightplan_logo_live_begin
                  0x00a0a2                  flightplan_logo_live_received_byte
                  0x00a152                  flightplan_logo_live_commit
 .text            0x00a178        0x8ca build\UDB5\config.o
                  0x00a9f6                  config_load
                  0x00aa1e                  config_save
                  0x00aa3a                  config_init
 .text            0x00aa42        0x81a build\UDB5\mathlibNAV.o
                  0x00aa42                  sine
                  0x00aaa2                  arcsine
                  0x00ab4a                  cosine
                  0x00ab58                  rotate_2D_vector_by_vector
                  0x00abc6                  rotate_2D_long_vector_by_vector
                  0x00ac24                  rotate_2D_vector_by_angle
                  0x00ac40                  rotate_2D
                  0x00acaa                  rect_to_polar
                  0x00ad66                  rect_to_polar16
                  0x00ae3c                  sqrt_int
                  0x00aea4                  sqrt_long
                  0x00af5c                  vector2_mag
                  0x00af7c                  vector3_mag
                  0x00afa8                  vector2_normalize
                  0x00b008                  vector3_normalize
                  0x00b090                  long_scale
                  0x00b120                  find_first_bit_int16
                  0x00b150                  find_first_bit_int32
                  0x00b1ac                  VectorCross
 .text            0x00b25c        0x62a build\UDB5\rmat.o
                  0x00b25c                  yaw_drift_reset
                  0x00b26e                  dcm_init_rmat
                  0x00b274                  udb_callback_read_sensors
                  0x00b86a                  dcm_run_imu_step
 .text            0x00b886        0x5fe build\UDB5\altitudeCntrl.o
                  0x00b886                  init_altitudeCntrl
                  0x00b908                  save_altitudeCntrl
                  0x00b976                  altitudeCntrl
                  0x00b9e6                  setTargetAltitude
 .text            0x00be84        0x58a build\UDB5\helicalTurnCntrl.o
                  0x00bfac                  helicalTurnCntrl
 .text            0x00c40e        0x50a build\UDB5\flightplan-waypoints.o
                  0x00c40e                  waypoint_count
                  0x00c546                  clear_flightplan
                  0x00c550                  add_waypoint
                  0x00c574                  flightplan_waypoints_index_get
                  0x00c57c                  flightplan_waypoints_init
                  0x00c588                  flightplan_waypoints_begin
                  0x00c5ec                  getWaypoint3D
                  0x00c64c                  set_waypoint
                  0x00c7d6                  flightplan_waypoints_update
                  0x00c8b2                  flightplan_waypoints_live_begin
                  0x00c8be                  flightplan_waypoints_live_received_byte
                  0x00c8fc                  flightplan_waypoints_live_commit
 .text            0x00c918        0x4f4 build\UDB5\navigate.o
                  0x00c918                  navigate_get_goal
                  0x00c938                  init_navigation
                  0x00c996                  save_navigation
                  0x00ca54                  dcm_callback_gps_location_updated
                  0x00ca6a                  navigate_set_goal
                  0x00cad8                  navigate_set_goal_height
                  0x00cae4                  navigate_process_flightplan
                  0x00cb50                  navigate_desired_height
                  0x00cc6a                  navigate_compute_bearing_to_goal
                  0x00ccfa                  wind_gain_adjustment
                  0x00cd02                  navigate_determine_deflection

.dinit            0x00ce0c        0x4e6
 .dinit           0x00ce0c        0x4e6 data_init

.text             0x00d2f2       0x4dd2
 .text            0x00d2f2        0x45c build\UDB5\states.o
                  0x00d2f2                  init_states
                  0x00d314                  udb_callback_radio_did_turn_off
                  0x00d320                  udb_heartbeat_40hz_callback
                  0x00d58e                  build\UDB5\states.o:_startS
                  0x00d596                  build\UDB5\states.o:_calibrateS
                  0x00d5d6                  build\UDB5\states.o:_acquiringS
                  0x00d644                  build\UDB5\states.o:_manualS
                  0x00d688                  build\UDB5\states.o:_stabilizedS
                  0x00d6c8                  build\UDB5\states.o:_waypointS
                  0x00d710                  build\UDB5\states.o:_returnS
 .text            0x00d74e        0x3ca build\UDB5\I2C2.o
                  0x00d74e                  I2C2_Normal
                  0x00d782                  I2C2_Reset
                  0x00d7ee                  I2C2_trigger_service
                  0x00d7fa                  build\UDB5\I2C2.o:_serviceI2C2
                  0x00d810                  _MI2C2Interrupt
                  0x00d838                  I2C2_Write
                  0x00d8cc                  I2C2_Read
                  0x00d91a                  I2C2_checkACK
                  0x00d95c                  build\UDB5\I2C2.o:_isr_startWrite
                  0x00d978                  build\UDB5\I2C2.o:_isr_writeAddress
                  0x00d98e                  build\UDB5\I2C2.o:_isr_writeCommandData
                  0x00d9da                  build\UDB5\I2C2.o:_isr_writeData
                  0x00da18                  build\UDB5\I2C2.o:_isr_writeStop
                  0x00da24                  build\UDB5\I2C2.o:_isr_doneWrite
                  0x00da3c                  build\UDB5\I2C2.o:_isr_readStart
                  0x00da4c                  build\UDB5\I2C2.o:_isr_readAddress
                  0x00da7c                  build\UDB5\I2C2.o:_isr_recen
                  0x00da96                  build\UDB5\I2C2.o:_isr_rerecen
                  0x00daa2                  build\UDB5\I2C2.o:_isr_recstore
                  0x00dad0                  build\UDB5\I2C2.o:_isr_stopRead
                  0x00dadc                  build\UDB5\I2C2.o:_isr_idle
                  0x00dae2                  build\UDB5\I2C2.o:_isr_doneRead
 .text            0x00db18        0x3c8 build\UDB5\radioIn.o
                  0x00db18                  udb_servo_record_trims
                  0x00db40                  radioIn_init
                  0x00dc06                  radioIn_failsafe_check
                  0x00dc40                  radioIn_failsafe_reset
                  0x00dc7e                  _IC1Interrupt
                  0x00dcca                  _IC2Interrupt
                  0x00dd16                  _IC3Interrupt
                  0x00dd62                  _IC4Interrupt
                  0x00ddae                  _IC5Interrupt
                  0x00ddfa                  _IC6Interrupt
                  0x00de46                  _IC7Interrupt
                  0x00de92                  _IC8Interrupt
 .text            0x00dee0        0x36c build\UDB5\mathlib.o
                  0x00dee0                  vect2_16x16_rotate
                  0x00df40                  vect2_32x16_rotate
                  0x00df9a                  vect2_16phi_rotate
                  0x00dfba                  vect2_polar
                  0x00e060                  vect2_polar_16
                  0x00e122                  vect2_16_mag
                  0x00e14a                  vect3_16_mag
                  0x00e180                  vect2_16_norm
                  0x00e1d6                  vect3_16_norm
 .text            0x00e24c        0x34a build\UDB5\gpsParseCommon.o
                  0x00e24c                  get_gps_date
                  0x00e256                  get_gps_time
                  0x00e260                  gps_init
                  0x00e272                  gpsoutbin
                  0x00e290                  gpsoutline
                  0x00e2a8                  udb_gps_callback_get_byte_to_send
                  0x00e2dc                  udb_gps_callback_received_byte
                  0x00e2ea                  gps_nav_capable_check_set
                  0x00e324                  build\UDB5\gpsParseCommon.o:_gps_parse_common_callback
                  0x00e392                  gps_parse_common
                  0x00e39e                  calculate_week_num
                  0x00e49c                  calculate_time_of_week
 .text            0x00e596        0x31e build\UDB5\I2C1.o
                  0x00e596                  I2C1_Init
                  0x00e5c2                  I2C1_trigger_service
                  0x00e5ce                  build\UDB5\I2C1.o:_serviceI2C1
                  0x00e5e4                  _MI2C1Interrupt
                  0x00e60c                  I2C1_Write
                  0x00e69c                  I2C1_Read
                  0x00e6e6                  I2C1_CheckAck
                  0x00e720                  build\UDB5\I2C1.o:_I2C1_startWrite
                  0x00e730                  build\UDB5\I2C1.o:_I2C1_writeAddress
                  0x00e746                  build\UDB5\I2C1.o:_I2C1_writeCommandData
                  0x00e792                  build\UDB5\I2C1.o:_I2C1_writeData
                  0x00e7d0                  build\UDB5\I2C1.o:_I2C1_writeStop
                  0x00e7dc                  build\UDB5\I2C1.o:_I2C1_doneWrite
                  0x00e7f4                  build\UDB5\I2C1.o:_I2C1_readStart
                  0x00e804                  build\UDB5\I2C1.o:_I2C1_readAddress
                  0x00e818                  build\UDB5\I2C1.o:_I2C1_recen
                  0x00e832                  build\UDB5\I2C1.o:_I2C1_rerecen
                  0x00e83e                  build\UDB5\I2C1.o:_I2C1_recstore
                  0x00e86c                  build\UDB5\I2C1.o:_I2C1_stopRead
                  0x00e878                  build\UDB5\I2C1.o:_I2C1_idle
                  0x00e87e                  build\UDB5\I2C1.o:_I2C1_doneRead
 .text            0x00e8b4        0x2f4 build\UDB5\yawCntrl.o
                  0x00e8b4                  init_yawCntrl
                  0x00e946                  save_yawCntrl
                  0x00ea38                  yawCntrl
                  0x00ea52                  normalYawCntrl
                  0x00eb34                  hoverYawCntrl
 .text            0x00eba8        0x2e6 build\UDB5\estWind.o
                  0x00eba8                  estWind
 .text            0x00ee8e        0x2ce build\UDB5\EEPROM.o
                  0x00ee8e                  PageErase
                  0x00ee96                  build\UDB5\EEPROM.o:_MCP24LC256_callback
                  0x00eeec                  eeprom_service
                  0x00ef16                  block
                  0x00ef4e                  ReadPage
                  0x00ef9a                  ReadSector
                  0x00efee                  WritePage
                  0x00f038                  WriteSector
                  0x00f07c                  eeprom_test_read
                  0x00f0f6                  eeprom_test_write
 .text            0x00f15c        0x2cc build\UDB5\rollCntrl.o
                  0x00f15c                  init_rollCntrl
                  0x00f1f6                  save_rollCntrl
                  0x00f2e8                  rollCntrl
                  0x00f302                  normalRollCntrl
                  0x00f3a8                  hoverRollCntrl
 .text            0x00f428        0x2bc build\UDB5\serialIO.o
                  0x00f428                  udb_init_GPS
                  0x00f49a                  udb_gps_set_rate
                  0x00f4c4                  udb_gps_check_rate
                  0x00f4fe                  udb_gps_start_sending_data
                  0x00f506                  _U1TXInterrupt
                  0x00f546                  _U1RXInterrupt
                  0x00f586                  udb_init_USART
                  0x00f5f8                  udb_serial_set_rate
                  0x00f622                  udb_serial_check_rate
                  0x00f65c                  udb_serial_start_sending_data
                  0x00f664                  _U2TXInterrupt
                  0x00f6a4                  _U2RXInterrupt
 .text            0x00f6e4        0x2a8 build\UDB5\pitchCntrl.o
                  0x00f6e4                  init_pitchCntrl
                  0x00f75c                  save_pitchCntrl
                  0x00f81e                  pitchCntrl
 .text            0x00f98c        0x2a0 build\UDB5\deadReckoning.o
                  0x00f98c                  dead_reckon
 .text            0x00fc2c        0x24a build\UDB5\analog2digital_udb5.o
                  0x00fc2c                  udb_init_ADC
                  0x00fd06                  _DMA0Interrupt
 .text            0x00fe76        0x220 build\UDB5\telemetry_log.o
                  0x00fee2                  log_telemetry
                  0x00ff0c                  log_swapbuf
                  0x00ffcc                  log_close
                  0x010066                  telemetry_log
 .text            0x010096        0x212 build\UDB5\libDCM.o
                  0x010096                  SetAofA
                  0x0100a2                  GetAofA
                  0x0100aa                  dcm_init
                  0x0100fc                  udb_heartbeat_callback
                  0x010170                  dcm_calibrate
                  0x010184                  dcm_set_origin_location
                  0x0101c4                  dcm_absolute_to_relative
                  0x010222                  dcm_rel2abs
 .text            0x0102a8        0x200 build\UDB5\servoMix.o
                  0x0102a8                  servoMix_init
                  0x0102d2                  servoMix
                  0x010406                  cameraServoMix
 .text            0x0104a8        0x1fa build\UDB5\eeprom_udb4.o
                  0x0104a8                  udb_eeprom_init
                  0x0105ae                  eeprom_ByteWrite
                  0x0105d2                  eeprom_PageWrite
                  0x01060e                  eeprom_ByteRead
                  0x010642                  eeprom_SequentialRead
 .text            0x0106a2        0x1ea build\UDB5\events.o
                  0x0106a2                  register_event
                  0x0106b0                  register_event_p
                  0x010700                  trigger_event
                  0x01074e                  init_events
                  0x0107b4                  _C2Interrupt
                  0x010820                  _C1Interrupt
 .text            0x01088c        0x1e0 build\UDB5\estLocation.o
                  0x0108f8                  estLocation
 .text            0x010a6c        0x1d8 build\UDB5\gpsParseSTD.o
                  0x010a6c                  gps_nav_valid
                  0x010a82                  gps_startup_sequence
                  0x010ac6                  build\UDB5\gpsParseSTD.o:_msg_B3
                  0x010ad8                  build\UDB5\gpsParseSTD.o:_msg_A0
                  0x010af4                  build\UDB5\gpsParseSTD.o:_msg_A2
                  0x010b04                  build\UDB5\gpsParseSTD.o:_msg_PL1
                  0x010b1a                  build\UDB5\gpsParseSTD.o:_msg_PL2
                  0x010b50                  build\UDB5\gpsParseSTD.o:_msg_MSG41
                  0x010b94                  build\UDB5\gpsParseSTD.o:_msg_MSGU
                  0x010bba                  build\UDB5\gpsParseSTD.o:_msg_B0
                  0x010bea                  gps_commit_data
                  0x010c30                  gps_update_basic_data
                  0x010c3e                  init_gps_std
 .text            0x010c44        0x1b4 build\UDB5\mpu_spi.o
                  0x010c44                  initMPUSPI_master16
                  0x010c8c                  writeMPUSPIreg16
                  0x010cc2                  build\UDB5\mpu_spi.o:_no_call_back
                  0x010cc8                  readMPUSPI_burst16n
                  0x010d00                  _SPI2Interrupt
                  0x010dbe                  readMPUSPIreg16
 .text            0x010df8        0x18a build\UDB5\servoOut.o
                  0x010df8                  servoOut_init
                  0x010e44                  udb_servo_pulsesat
                  0x010e6e                  udb_set_action_state
                  0x010e8a                  start_pwm_outputs
                  0x010ea0                  _T4Interrupt
 .text            0x010f82        0x16e build\UDB5\background.o
                  0x010f82                  udb_cpu_load
                  0x010f94                  cpu_load_calc
                  0x010fa6                  udb_init_clock
                  0x011032                  _T1Interrupt
                  0x01105a                  _T5Interrupt
                  0x011078                  _T6Interrupt
                  0x0110a6                  udb_background_trigger_pulse
                  0x0110b4                  _T7Interrupt
                  0x0110e2                  udb_background_trigger
 .text            0x0110f0        0x168 build\UDB5\behavior.o
                  0x0110f0                  init_behavior
                  0x011102                  setBehavior
                  0x011128                  canStabilizeInverted
                  0x011130                  canStabilizeHover
                  0x011138                  updateBehavior
                  0x0111fe                  updateTriggerAction
 .text            0x011258        0x13e build\UDB5\flight_state.o
                  0x011258                  inflight_state
                  0x01135c                  flight_state_8hz
 .text            0x011396        0x12a build\UDB5\mpu6000.o
                  0x011396                  MPU6000_init16
                  0x011420                  build\UDB5\mpu6000.o:_process_MPU_data
                  0x01146a                  _INT3Interrupt
                  0x011490                  MPU6000_print
 .text            0x0114c0        0x126 build\UDB5\mcu.o
                  0x0114c0                  get_reset_flags
                  0x0115c0                  mcu_init
 .text            0x0115e6        0x11c build\UDB5\flightplan.o
                  0x0115e6                  use_fixed_origin
                  0x0115ee                  get_fixed_origin
                  0x011652                  flightplan_init
                  0x011660                  flightplan_begin
                  0x01167e                  flightplan_update
                  0x011696                  flightplan_index_get
                  0x0116b4                  flightplan_live_begin
                  0x0116cc                  flightplan_live_received_byte
                  0x0116ea                  flightplan_live_commit
 .text            0x011702         0xfc build\UDB5\mode_switch.o
                  0x011702                  flight_mode_switch_manual
                  0x011710                  flight_mode_switch_stabilize
                  0x01171e                  flight_mode_switch_waypoints
                  0x01172c                  flight_mode_switch_2pos_poll
                  0x011732                  flight_mode_switch_check_set
 .text            0x0117fe         0xfc build\UDB5\servoPrepare.o
                  0x0117fe                  servoPrepare_init
                  0x0118e4                  dcm_heartbeat_callback
 .text            0x0118fa         0xde build\UDB5\traps.o
                  0x0118fa                  restart
                  0x011914                  _OscillatorFail
                  0x011940                  _AddressError
                  0x011966                  _StackError
                  0x01198c                  _MathError
                  0x0119b2                  _DMACError
 .text            0x0119d8         0xcc build\UDB5\heartbeat.o
                  0x0119d8                  heartbeat_chk
                  0x011a06                  heartbeat_cnt
                  0x011a0e                  heartbeat
                  0x011a62                  build\UDB5\heartbeat.o:_heartbeat_pulse
 .text            0x011aa4         0xc8 build\UDB5\EEPROM_FS.o
                  0x011aa4                  EEPROM_FormatFS
 .text            0x011b6c         0xbe build\UDB5\estAirspeed.o
                  0x011b6c                  get_air_density
                  0x011b94                  calc_indicated_airspeed
                  0x011bc0                  calc_true_airspeed_from_indicated
                  0x011bee                  calc_true_airspeed
 .text            0x011c2a         0xa4 build\UDB5\filesys.o
                  0x011c2a                  filesys_chkdsk
                  0x011c36                  filesys_dir
                  0x011c72                  filesys_cat
                  0x011cb2                  filesys_format
                  0x011cc6                  filesys_init
 .text            0x011cce         0x98 build\UDB5\MDD_EEPROM.o
                  0x011cce                  MDD_EEPROM_MediaDetect
                  0x011cd6                  MDD_EEPROM_ReadSectorSize
                  0x011cde                  MDD_EEPROM_ReadCapacity
                  0x011ce8                  MDD_EEPROM_InitIO
                  0x011cf4                  MDD_EEPROM_MediaInitialize
                  0x011d0c                  MDD_EEPROM_SectorRead
                  0x011d34                  MDD_EEPROM_SectorWrite
                  0x011d5e                  MDD_EEPROM_WriteProtectState
 .text            0x011d66         0x90 build\UDB5\cameraCntrl.o
                  0x011d66                  cam_pitchServoLimit
                  0x011d90                  cam_yawServoLimit
                  0x011dba                  set_camera_view
                  0x011dd2                  compute_camera_view
                  0x011df0                  cameraCntrl
 .text            0x011df6         0x88 build\UDB5\estYawDrift.o
                  0x011df6                  dcm_enable_yaw_drift_correction
                  0x011e1c                  estYawDrift
 .text            0x011e7e         0x86 build\UDB5\estAltitude.o
                  0x011e7e                  get_barometer_temperature
                  0x011e86                  get_barometer_pressure
                  0x011e90                  get_barometer_altitude
                  0x011e9a                  get_barometer_agl_altitude
                  0x011ea4                  altimeter_calibrate
                  0x011efe                  estAltitude
 .text            0x011f04         0x4e build\UDB5\main.o
                  0x011f04                  matrixpilot_init
                  0x011f34                  matrixpilot_loop
                  0x011f40                  main
 .text            0x011f52         0x40 build\UDB5\libUDB.o
                  0x011f52                  udb_init
                  0x011f8a                  udb_run
 .text            0x011f92         0x40 build\UDB5\traps_asm.o
                  0x011f92                  SP_start
                  0x011f96                  SP_limit
                  0x011f9a                  SP_current
                  0x011f9e                  getErrLoc
                  0x011fb4                  setjmp
                  0x011fca                  gentrap
 .text            0x011fd2         0x3c build\UDB5\euler_angles.o
                  0x011fd2                  get_geo_heading_angle
 .text            0x01200e         0x30 build\UDB5\airspeedCntrl.o
                  0x01200e                  init_airspeedCntrl
                  0x012038                  save_airspeedCntrl
 .text            0x01203e         0x22 build\UDB5\telemetry.o
                  0x01203e                  udb_serial_callback_get_byte_to_send
                  0x012046                  udb_serial_callback_received_byte
                  0x01204e                  telemetry_restart
                  0x012054                  telemetry_output_8hz
                  0x01205a                  telemetry_init
 .text            0x012060         0x22 build\UDB5\ADchannel.o
                  0x012060                  udb_a2d_record_offsets
 .text            0x012082         0x16 build\UDB5\MAVLink.o
                  0x012082                  mavlink_init
                  0x012088                  mavlink_callback_get_byte_to_send
                  0x012090                  mavlink_callback_received_byte
 .text            0x012098          0xc build\UDB5\analogs.o
                  0x012098                  init_analogs
                  0x01209e                  calculate_analog_sensor_values
 .text            0x0120a4          0x8 build\UDB5\mp_osd.o
                  0x0120a4                  mp_osd_run_step
 .text            0x0120ac          0x6 build\UDB5\altitudeCntrlVariable.o
                  0x0120ac                  init_altitudeCntrlVariable
 .text            0x0120b2          0x6 build\UDB5\sonarCntrl.o
                  0x0120b2                  calculate_sonar_height_above_ground
 .text            0x0120b8          0x6 build\UDB5\osd.o
                  0x0120b8                  osd_init
 .text            0x0120be          0x6 build\UDB5\uart.o
                  0x0120be                  init_uart
